ARM GAS  /var/folders/g8/1wk0j7gx1n5fw296n3mf_1g40000gn/T//cczcQ1mS.s 			page 1


   1              		.cpu cortex-m7
   2              		.eabi_attribute 28, 1
   3              		.eabi_attribute 20, 1
   4              		.eabi_attribute 21, 1
   5              		.eabi_attribute 23, 3
   6              		.eabi_attribute 24, 1
   7              		.eabi_attribute 25, 1
   8              		.eabi_attribute 26, 1
   9              		.eabi_attribute 30, 2
  10              		.eabi_attribute 34, 1
  11              		.eabi_attribute 18, 4
  12              		.file	"pluck.cpp"
  13              		.text
  14              	.Ltext0:
  15              		.cfi_sections	.debug_frame
  16              		.section	.text._ZN7daisysp8ReverbScD2Ev,"axG",%progbits,_ZN7daisysp8ReverbScD5Ev,comdat
  17              		.align	1
  18              		.p2align 2,,3
  19              		.weak	_ZN7daisysp8ReverbScD2Ev
  20              		.arch armv7e-m
  21              		.syntax unified
  22              		.thumb
  23              		.thumb_func
  24              		.fpu fpv5-d16
  26              	_ZN7daisysp8ReverbScD2Ev:
  27              	.LVL0:
  28              	.LFB3000:
  29              		.file 1 "../DaisySP/Source/Effects/reverbsc.h"
   1:../DaisySP/Source/Effects/reverbsc.h **** #pragma once
   2:../DaisySP/Source/Effects/reverbsc.h **** #ifndef DSYSP_REVERBSC_H
   3:../DaisySP/Source/Effects/reverbsc.h **** #define DSYSP_REVERBSC_H
   4:../DaisySP/Source/Effects/reverbsc.h **** 
   5:../DaisySP/Source/Effects/reverbsc.h **** #define DSY_REVERBSC_MAX_SIZE 98936
   6:../DaisySP/Source/Effects/reverbsc.h **** 
   7:../DaisySP/Source/Effects/reverbsc.h **** namespace daisysp
   8:../DaisySP/Source/Effects/reverbsc.h **** {
   9:../DaisySP/Source/Effects/reverbsc.h **** /**Delay line for internal reverb use
  10:../DaisySP/Source/Effects/reverbsc.h **** */
  11:../DaisySP/Source/Effects/reverbsc.h **** typedef struct
  12:../DaisySP/Source/Effects/reverbsc.h **** {
  13:../DaisySP/Source/Effects/reverbsc.h ****     int    write_pos;         /**< write position */
  14:../DaisySP/Source/Effects/reverbsc.h ****     int    buffer_size;       /**< buffer size */
  15:../DaisySP/Source/Effects/reverbsc.h ****     int    read_pos;          /**< read position */
  16:../DaisySP/Source/Effects/reverbsc.h ****     int    read_pos_frac;     /**< fractional component of read pos */
  17:../DaisySP/Source/Effects/reverbsc.h ****     int    read_pos_frac_inc; /**< increment for fractional */
  18:../DaisySP/Source/Effects/reverbsc.h ****     int    dummy;             /**<  dummy var */
  19:../DaisySP/Source/Effects/reverbsc.h ****     int    seed_val;          /**< randseed */
  20:../DaisySP/Source/Effects/reverbsc.h ****     int    rand_line_cnt;     /**< number of random lines */
  21:../DaisySP/Source/Effects/reverbsc.h ****     float  filter_state;      /**< state of filter */
  22:../DaisySP/Source/Effects/reverbsc.h ****     float *buf;               /**< buffer ptr */
  23:../DaisySP/Source/Effects/reverbsc.h **** } ReverbScDl;
  24:../DaisySP/Source/Effects/reverbsc.h **** 
  25:../DaisySP/Source/Effects/reverbsc.h **** /** Stereo Reverb
  26:../DaisySP/Source/Effects/reverbsc.h **** 
  27:../DaisySP/Source/Effects/reverbsc.h **** Reverb SC:               Ported from csound/soundpipe
  28:../DaisySP/Source/Effects/reverbsc.h **** 
  29:../DaisySP/Source/Effects/reverbsc.h **** Original author(s):        Sean Costello, Istvan Varga
ARM GAS  /var/folders/g8/1wk0j7gx1n5fw296n3mf_1g40000gn/T//cczcQ1mS.s 			page 2


  30:../DaisySP/Source/Effects/reverbsc.h **** 
  31:../DaisySP/Source/Effects/reverbsc.h **** Year:                    1999, 2005
  32:../DaisySP/Source/Effects/reverbsc.h **** 
  33:../DaisySP/Source/Effects/reverbsc.h **** Ported to soundpipe by:  Paul Batchelor
  34:../DaisySP/Source/Effects/reverbsc.h **** 
  35:../DaisySP/Source/Effects/reverbsc.h **** Ported by:                Stephen Hensley
  36:../DaisySP/Source/Effects/reverbsc.h **** */
  37:../DaisySP/Source/Effects/reverbsc.h **** class ReverbSc
  38:../DaisySP/Source/Effects/reverbsc.h **** {
  39:../DaisySP/Source/Effects/reverbsc.h ****   public:
  40:../DaisySP/Source/Effects/reverbsc.h ****     ReverbSc() {}
  41:../DaisySP/Source/Effects/reverbsc.h ****     ~ReverbSc() {}
  30              		.loc 1 41 5 view -0
  31              		.cfi_startproc
  32              		@ args = 0, pretend = 0, frame = 0
  33              		@ frame_needed = 0, uses_anonymous_args = 0
  34              		@ link register save eliminated.
  35              		.loc 1 41 18 is_stmt 0 view .LVU1
  36 0000 7047     		bx	lr
  37              		.cfi_endproc
  38              	.LFE3000:
  40              		.weak	_ZN7daisysp8ReverbScD1Ev
  41              		.thumb_set _ZN7daisysp8ReverbScD1Ev,_ZN7daisysp8ReverbScD2Ev
  42 0002 00BF     		.section	.text._ZN5daisy9DaisySeedD2Ev,"axG",%progbits,_ZN5daisy9DaisySeedD5Ev,comdat
  43              		.align	1
  44              		.p2align 2,,3
  45              		.weak	_ZN5daisy9DaisySeedD2Ev
  46              		.syntax unified
  47              		.thumb
  48              		.thumb_func
  49              		.fpu fpv5-d16
  51              	_ZN5daisy9DaisySeedD2Ev:
  52              	.LVL1:
  53              	.LFB4390:
  54              		.file 2 "../libdaisy/src/daisy_seed.h"
   1:../libdaisy/src/daisy_seed.h **** #pragma once
   2:../libdaisy/src/daisy_seed.h **** #ifndef DSY_SEED_H
   3:../libdaisy/src/daisy_seed.h **** #define DSY_SEED_H
   4:../libdaisy/src/daisy_seed.h **** 
   5:../libdaisy/src/daisy_seed.h **** #include "daisy.h"
   6:../libdaisy/src/daisy_seed.h **** 
   7:../libdaisy/src/daisy_seed.h **** //Uncomment this out if you're still using the rev2 hardware
   8:../libdaisy/src/daisy_seed.h **** //#define SEED_REV2
   9:../libdaisy/src/daisy_seed.h **** 
  10:../libdaisy/src/daisy_seed.h **** namespace daisy
  11:../libdaisy/src/daisy_seed.h **** {
  12:../libdaisy/src/daisy_seed.h **** /**
  13:../libdaisy/src/daisy_seed.h ****    @brief This is the higher-level interface for the Daisy board. \n 
  14:../libdaisy/src/daisy_seed.h ****     All basic peripheral configuration/initialization is setup here. \n
  15:../libdaisy/src/daisy_seed.h **** 
  16:../libdaisy/src/daisy_seed.h ****    @ingroup boards
  17:../libdaisy/src/daisy_seed.h **** */
  18:../libdaisy/src/daisy_seed.h **** class DaisySeed
  19:../libdaisy/src/daisy_seed.h **** {
  20:../libdaisy/src/daisy_seed.h ****   public:
  21:../libdaisy/src/daisy_seed.h ****     DaisySeed() {}
  22:../libdaisy/src/daisy_seed.h ****     ~DaisySeed() {}
ARM GAS  /var/folders/g8/1wk0j7gx1n5fw296n3mf_1g40000gn/T//cczcQ1mS.s 			page 3


  55              		.loc 2 22 5 is_stmt 1 view -0
  56              		.cfi_startproc
  57              		@ args = 0, pretend = 0, frame = 0
  58              		@ frame_needed = 0, uses_anonymous_args = 0
  59              		@ link register save eliminated.
  60              	.LBB329:
  61              	.LBI329:
  62              		.file 3 "../libdaisy/src/sys/system.h"
   1:../libdaisy/src/sys/system.h **** #ifndef DSY_SYSTEM_H
   2:../libdaisy/src/sys/system.h **** #define DSY_SYSTEM_H
   3:../libdaisy/src/sys/system.h **** 
   4:../libdaisy/src/sys/system.h **** #ifndef UNIT_TEST // for unit tests, a dummy implementation is provided below
   5:../libdaisy/src/sys/system.h **** 
   6:../libdaisy/src/sys/system.h **** #include <cstdint>
   7:../libdaisy/src/sys/system.h **** #include "per/tim.h"
   8:../libdaisy/src/sys/system.h **** 
   9:../libdaisy/src/sys/system.h **** namespace daisy
  10:../libdaisy/src/sys/system.h **** {
  11:../libdaisy/src/sys/system.h **** /** A handle for interacting with the Core System. 
  12:../libdaisy/src/sys/system.h ****  ** This includes the Clock tree, MPU, global DMA initialization,
  13:../libdaisy/src/sys/system.h ****  ** cache handling, and any other necessary global initiailzation
  14:../libdaisy/src/sys/system.h ****  **
  15:../libdaisy/src/sys/system.h ****  ** @author shensley
  16:../libdaisy/src/sys/system.h ****  ** @ingroup system
  17:../libdaisy/src/sys/system.h ****  */
  18:../libdaisy/src/sys/system.h **** class System
  19:../libdaisy/src/sys/system.h **** {
  20:../libdaisy/src/sys/system.h ****   public:
  21:../libdaisy/src/sys/system.h ****     /** Contains settings for initializing the System */
  22:../libdaisy/src/sys/system.h ****     struct Config
  23:../libdaisy/src/sys/system.h ****     {
  24:../libdaisy/src/sys/system.h ****         /** Specifies the system clock frequency that feeds APB/AHB clocks, etc. */
  25:../libdaisy/src/sys/system.h ****         enum class SysClkFreq
  26:../libdaisy/src/sys/system.h ****         {
  27:../libdaisy/src/sys/system.h ****             FREQ_400MHZ,
  28:../libdaisy/src/sys/system.h ****             FREQ_480MHZ,
  29:../libdaisy/src/sys/system.h ****         };
  30:../libdaisy/src/sys/system.h **** 
  31:../libdaisy/src/sys/system.h ****         /** Method to call on the struct to set to defaults
  32:../libdaisy/src/sys/system.h ****          ** CPU Freq set to 400MHz
  33:../libdaisy/src/sys/system.h ****          ** Cache Enabled 
  34:../libdaisy/src/sys/system.h ****          ** */
  35:../libdaisy/src/sys/system.h ****         void Defaults()
  36:../libdaisy/src/sys/system.h ****         {
  37:../libdaisy/src/sys/system.h ****             cpu_freq    = SysClkFreq::FREQ_400MHZ;
  38:../libdaisy/src/sys/system.h ****             use_dcache  = true;
  39:../libdaisy/src/sys/system.h ****             use_icache  = true;
  40:../libdaisy/src/sys/system.h ****             skip_clocks = false;
  41:../libdaisy/src/sys/system.h ****         }
  42:../libdaisy/src/sys/system.h **** 
  43:../libdaisy/src/sys/system.h ****         /** Method to call on the struct to set to boost mode:
  44:../libdaisy/src/sys/system.h ****          ** CPU Freq set to 480MHz
  45:../libdaisy/src/sys/system.h ****          ** Cache Enabled 
  46:../libdaisy/src/sys/system.h ****          ** */
  47:../libdaisy/src/sys/system.h ****         void Boost()
  48:../libdaisy/src/sys/system.h ****         {
  49:../libdaisy/src/sys/system.h ****             cpu_freq    = SysClkFreq::FREQ_480MHZ;
ARM GAS  /var/folders/g8/1wk0j7gx1n5fw296n3mf_1g40000gn/T//cczcQ1mS.s 			page 4


  50:../libdaisy/src/sys/system.h ****             use_dcache  = true;
  51:../libdaisy/src/sys/system.h ****             use_icache  = true;
  52:../libdaisy/src/sys/system.h ****             skip_clocks = false;
  53:../libdaisy/src/sys/system.h ****         }
  54:../libdaisy/src/sys/system.h **** 
  55:../libdaisy/src/sys/system.h ****         SysClkFreq cpu_freq;
  56:../libdaisy/src/sys/system.h ****         bool       use_dcache;
  57:../libdaisy/src/sys/system.h ****         bool       use_icache;
  58:../libdaisy/src/sys/system.h ****         bool       skip_clocks;
  59:../libdaisy/src/sys/system.h ****     };
  60:../libdaisy/src/sys/system.h **** 
  61:../libdaisy/src/sys/system.h ****     /** Describes the different regions of memory available to the Daisy
  62:../libdaisy/src/sys/system.h ****      * 
  63:../libdaisy/src/sys/system.h ****      */
  64:../libdaisy/src/sys/system.h ****     enum MemoryRegion
  65:../libdaisy/src/sys/system.h ****     {
  66:../libdaisy/src/sys/system.h ****         INTERNAL_FLASH = 0,
  67:../libdaisy/src/sys/system.h ****         ITCMRAM,
  68:../libdaisy/src/sys/system.h ****         DTCMRAM,
  69:../libdaisy/src/sys/system.h ****         SRAM_D1,
  70:../libdaisy/src/sys/system.h ****         SRAM_D2,
  71:../libdaisy/src/sys/system.h ****         SRAM_D3,
  72:../libdaisy/src/sys/system.h ****         SDRAM,
  73:../libdaisy/src/sys/system.h ****         QSPI,
  74:../libdaisy/src/sys/system.h ****         INVALID_ADDRESS,
  75:../libdaisy/src/sys/system.h ****     };
  76:../libdaisy/src/sys/system.h **** 
  77:../libdaisy/src/sys/system.h ****     System() {}
  78:../libdaisy/src/sys/system.h ****     ~System() {}
  63              		.loc 3 78 5 view .LVU3
  64              		.loc 3 78 5 is_stmt 0 view .LVU4
  65              	.LBE329:
  66              	.LBB330:
  67              	.LBI330:
  68              		.file 4 "../libdaisy/src/hid/usb.h"
   1:../libdaisy/src/hid/usb.h **** #pragma once
   2:../libdaisy/src/hid/usb.h **** #ifndef DSY_HID_USB_H
   3:../libdaisy/src/hid/usb.h **** #define DSY_HID_USB_H
   4:../libdaisy/src/hid/usb.h **** #include <stdint.h>
   5:../libdaisy/src/hid/usb.h **** #include <stdlib.h>
   6:../libdaisy/src/hid/usb.h **** 
   7:../libdaisy/src/hid/usb.h **** namespace daisy
   8:../libdaisy/src/hid/usb.h **** /** @addtogroup human_interface
   9:../libdaisy/src/hid/usb.h ****     @{
  10:../libdaisy/src/hid/usb.h **** */
  11:../libdaisy/src/hid/usb.h **** 
  12:../libdaisy/src/hid/usb.h **** {
  13:../libdaisy/src/hid/usb.h **** /** 
  14:../libdaisy/src/hid/usb.h ****     @brief Interface for initializing and using the USB Peripherals on the daisy
  15:../libdaisy/src/hid/usb.h ****     @author Stephen Hensley
  16:../libdaisy/src/hid/usb.h ****     @date December 2019
  17:../libdaisy/src/hid/usb.h **** */
  18:../libdaisy/src/hid/usb.h **** class UsbHandle
  19:../libdaisy/src/hid/usb.h **** {
  20:../libdaisy/src/hid/usb.h ****   public:
  21:../libdaisy/src/hid/usb.h ****     /** Return values for USBHandle Functions */
  22:../libdaisy/src/hid/usb.h ****     enum class Result
ARM GAS  /var/folders/g8/1wk0j7gx1n5fw296n3mf_1g40000gn/T//cczcQ1mS.s 			page 5


  23:../libdaisy/src/hid/usb.h ****     {
  24:../libdaisy/src/hid/usb.h ****         OK,
  25:../libdaisy/src/hid/usb.h ****         ERR,
  26:../libdaisy/src/hid/usb.h ****     };
  27:../libdaisy/src/hid/usb.h **** 
  28:../libdaisy/src/hid/usb.h ****     /** Specified which of the two USB Peripherals to initialize. */
  29:../libdaisy/src/hid/usb.h ****     enum UsbPeriph
  30:../libdaisy/src/hid/usb.h ****     {
  31:../libdaisy/src/hid/usb.h ****         FS_INTERNAL, /**< Internal pin */
  32:../libdaisy/src/hid/usb.h ****         FS_EXTERNAL, /**< FS External D+ pin is Pin 38 (GPIO32). FS External D- pin is Pin 37 (GPIO
  33:../libdaisy/src/hid/usb.h ****         FS_BOTH,     /**< Both */
  34:../libdaisy/src/hid/usb.h ****     };
  35:../libdaisy/src/hid/usb.h **** 
  36:../libdaisy/src/hid/usb.h **** 
  37:../libdaisy/src/hid/usb.h ****     /** Function called upon reception of a buffer */
  38:../libdaisy/src/hid/usb.h ****     typedef void (*ReceiveCallback)(uint8_t* buff, uint32_t* len);
  39:../libdaisy/src/hid/usb.h **** 
  40:../libdaisy/src/hid/usb.h ****     UsbHandle() {}
  41:../libdaisy/src/hid/usb.h **** 
  42:../libdaisy/src/hid/usb.h ****     ~UsbHandle() {}
  69              		.loc 4 42 5 is_stmt 1 view .LVU5
  70              		.loc 4 42 5 is_stmt 0 view .LVU6
  71              	.LBE330:
  72              	.LBB331:
  73              	.LBI331:
  74              		.file 5 "../libdaisy/src/per/adc.h"
   1:../libdaisy/src/per/adc.h **** #pragma once
   2:../libdaisy/src/per/adc.h **** #ifndef DSY_ADC_H
   3:../libdaisy/src/per/adc.h **** #define DSY_ADC_H /**< Macro */
   4:../libdaisy/src/per/adc.h **** #include <stdint.h>
   5:../libdaisy/src/per/adc.h **** #include <stdlib.h>
   6:../libdaisy/src/per/adc.h **** #include "daisy_core.h"
   7:../libdaisy/src/per/adc.h **** #include "per/gpio.h"
   8:../libdaisy/src/per/adc.h **** 
   9:../libdaisy/src/per/adc.h **** #define DSY_ADC_MAX_CHANNELS 16 /**< Maximum number of ADC channels */
  10:../libdaisy/src/per/adc.h **** 
  11:../libdaisy/src/per/adc.h **** namespace daisy
  12:../libdaisy/src/per/adc.h **** {
  13:../libdaisy/src/per/adc.h **** /** @addtogroup per_analog
  14:../libdaisy/src/per/adc.h ****     @{
  15:../libdaisy/src/per/adc.h **** */
  16:../libdaisy/src/per/adc.h **** 
  17:../libdaisy/src/per/adc.h **** /* While there may not be many configuration options here,
  18:../libdaisy/src/per/adc.h **** using a struct like this allows us to add more configuration
  19:../libdaisy/src/per/adc.h **** later without breaking existing functionality.
  20:../libdaisy/src/per/adc.h **** */
  21:../libdaisy/src/per/adc.h **** 
  22:../libdaisy/src/per/adc.h **** /** @brief   Configuration Structure for an ADC Channel 
  23:../libdaisy/src/per/adc.h ****  *  @details This can be used to configure a a single input, 
  24:../libdaisy/src/per/adc.h ****  *           or a multiplexed input, allowing up to 8 inputs on 
  25:../libdaisy/src/per/adc.h ****  *           one channel.
  26:../libdaisy/src/per/adc.h ****  *  @note    Sharing data lines to multiple muxes _is_ possible, but
  27:../libdaisy/src/per/adc.h ****  *           each channel sharing data lines must be set to the maximum
  28:../libdaisy/src/per/adc.h ****  *           number of channels, even if some multiplexers have fewer
  29:../libdaisy/src/per/adc.h ****  *           inputs connected.
  30:../libdaisy/src/per/adc.h **** */
  31:../libdaisy/src/per/adc.h **** struct AdcChannelConfig
ARM GAS  /var/folders/g8/1wk0j7gx1n5fw296n3mf_1g40000gn/T//cczcQ1mS.s 			page 6


  32:../libdaisy/src/per/adc.h **** {
  33:../libdaisy/src/per/adc.h ****     /** Which pin to use for multiplexing */
  34:../libdaisy/src/per/adc.h ****     enum MuxPin
  35:../libdaisy/src/per/adc.h ****     {
  36:../libdaisy/src/per/adc.h ****         MUX_SEL_0,    /**< & */
  37:../libdaisy/src/per/adc.h ****         MUX_SEL_1,    /**< & */
  38:../libdaisy/src/per/adc.h ****         MUX_SEL_2,    /**< & */
  39:../libdaisy/src/per/adc.h ****         MUX_SEL_LAST, /**< & */
  40:../libdaisy/src/per/adc.h ****     };
  41:../libdaisy/src/per/adc.h **** 
  42:../libdaisy/src/per/adc.h ****     /** Initializes a single ADC pin as an ADC. 
  43:../libdaisy/src/per/adc.h ****     \param pin Pin to init.
  44:../libdaisy/src/per/adc.h ****      */
  45:../libdaisy/src/per/adc.h ****     void InitSingle(dsy_gpio_pin pin);
  46:../libdaisy/src/per/adc.h **** 
  47:../libdaisy/src/per/adc.h ****     /** 
  48:../libdaisy/src/per/adc.h ****     Initializes a single ADC pin as a Multiplexed ADC.
  49:../libdaisy/src/per/adc.h ****     Requires a CD405X Multiplexer connected to the pin.
  50:../libdaisy/src/per/adc.h ****     You only need to supply the mux pins that are required,
  51:../libdaisy/src/per/adc.h ****     e.g. a 4052 mux would only require mux_0 and mux_1.
  52:../libdaisy/src/per/adc.h ****     Internal Callbacks handle the pin addressing.
  53:../libdaisy/src/per/adc.h ****     \param mux_channels must be 1-8
  54:../libdaisy/src/per/adc.h ****     \param mux_0 First mux pin
  55:../libdaisy/src/per/adc.h ****     \param mux_1 Second mux pin
  56:../libdaisy/src/per/adc.h ****     \param mux_2 Third mux pin
  57:../libdaisy/src/per/adc.h ****     \param adc_pin &
  58:../libdaisy/src/per/adc.h ****     */
  59:../libdaisy/src/per/adc.h ****     void InitMux(dsy_gpio_pin adc_pin,
  60:../libdaisy/src/per/adc.h ****                  size_t       mux_channels,
  61:../libdaisy/src/per/adc.h ****                  dsy_gpio_pin mux_0,
  62:../libdaisy/src/per/adc.h ****                  dsy_gpio_pin mux_1 = {DSY_GPIOX, 0},
  63:../libdaisy/src/per/adc.h ****                  dsy_gpio_pin mux_2 = {DSY_GPIOX, 0});
  64:../libdaisy/src/per/adc.h **** 
  65:../libdaisy/src/per/adc.h ****     dsy_gpio pin_;                   /**< & */
  66:../libdaisy/src/per/adc.h ****     dsy_gpio mux_pin_[MUX_SEL_LAST]; /**< & */
  67:../libdaisy/src/per/adc.h ****     uint8_t  mux_channels_;          /**< & */
  68:../libdaisy/src/per/adc.h **** };
  69:../libdaisy/src/per/adc.h **** 
  70:../libdaisy/src/per/adc.h **** /**
  71:../libdaisy/src/per/adc.h ****    @brief Handler for analog to digital conversion
  72:../libdaisy/src/per/adc.h **** */
  73:../libdaisy/src/per/adc.h **** class AdcHandle
  74:../libdaisy/src/per/adc.h **** {
  75:../libdaisy/src/per/adc.h ****   public:
  76:../libdaisy/src/per/adc.h ****     /** Supported oversampling amounts */
  77:../libdaisy/src/per/adc.h ****     enum OverSampling
  78:../libdaisy/src/per/adc.h ****     {
  79:../libdaisy/src/per/adc.h ****         OVS_NONE, /**< & */
  80:../libdaisy/src/per/adc.h ****         OVS_4,    /**< & */
  81:../libdaisy/src/per/adc.h ****         OVS_8,    /**< & */
  82:../libdaisy/src/per/adc.h ****         OVS_16,   /**< & */
  83:../libdaisy/src/per/adc.h ****         OVS_32,   /**< & */
  84:../libdaisy/src/per/adc.h ****         OVS_64,   /**< & */
  85:../libdaisy/src/per/adc.h ****         OVS_128,  /**< & */
  86:../libdaisy/src/per/adc.h ****         OVS_256,  /**< & */
  87:../libdaisy/src/per/adc.h ****         OVS_512,  /**< & */
  88:../libdaisy/src/per/adc.h ****         OVS_1024, /**< & */
ARM GAS  /var/folders/g8/1wk0j7gx1n5fw296n3mf_1g40000gn/T//cczcQ1mS.s 			page 7


  89:../libdaisy/src/per/adc.h ****         OVS_LAST, /**< & */
  90:../libdaisy/src/per/adc.h ****     };
  91:../libdaisy/src/per/adc.h **** 
  92:../libdaisy/src/per/adc.h ****     AdcHandle() {}
  93:../libdaisy/src/per/adc.h ****     ~AdcHandle() {}
  75              		.loc 5 93 5 is_stmt 1 view .LVU7
  76              		.loc 5 93 5 is_stmt 0 view .LVU8
  77              	.LBE331:
  78              	.LBB332:
  79              	.LBI332:
  80              		.file 6 "../libdaisy/src/hid/audio.h"
   1:../libdaisy/src/hid/audio.h **** #ifndef DSY_AUDIO_H
   2:../libdaisy/src/hid/audio.h **** #define DSY_AUDIO_H /**< & */
   3:../libdaisy/src/hid/audio.h **** 
   4:../libdaisy/src/hid/audio.h **** #include "per/sai.h"
   5:../libdaisy/src/hid/audio.h **** 
   6:../libdaisy/src/hid/audio.h **** namespace daisy
   7:../libdaisy/src/hid/audio.h **** {
   8:../libdaisy/src/hid/audio.h **** /** @brief Audio Engine Handle
   9:../libdaisy/src/hid/audio.h ****  *  @ingroup audio 
  10:../libdaisy/src/hid/audio.h ****  *  @details This class allows for higher level access to an audio engine.
  11:../libdaisy/src/hid/audio.h ****  *           If you're using a SOM like the DaisySeed or DaisyPatchSM (or any 
  12:../libdaisy/src/hid/audio.h ****  *            board that includes one of those objects) then the intialization
  13:../libdaisy/src/hid/audio.h ****  *            is already taken  care of.
  14:../libdaisy/src/hid/audio.h ****  *           If you're setting up your own custom hardware, or need to make changes
  15:../libdaisy/src/hid/audio.h ****  *           you will have to take the following steps:
  16:../libdaisy/src/hid/audio.h ****  *             1. Create and Initialize an SaiHandle or two depending on your requirements
  17:../libdaisy/src/hid/audio.h ****  *             2. Initialize the Audio Handle with the desired settings and the Initialized SaiHand
  18:../libdaisy/src/hid/audio.h ****  *             3. If the connected codec requires special configuration or initialization, do so
  19:../libdaisy/src/hid/audio.h ****  *             4. Write a callback method using either the AudioCallback or the InterleavingAudioCa
  20:../libdaisy/src/hid/audio.h ****  *             5. Start the Audio using one of the StartAudio function
  21:../libdaisy/src/hid/audio.h ****  */
  22:../libdaisy/src/hid/audio.h **** class AudioHandle
  23:../libdaisy/src/hid/audio.h **** {
  24:../libdaisy/src/hid/audio.h ****   public:
  25:../libdaisy/src/hid/audio.h ****     /** Manually configurable details about the Audio Engine */
  26:../libdaisy/src/hid/audio.h ****     /** TODO: Figure out how to get samplerate in here. */
  27:../libdaisy/src/hid/audio.h ****     struct Config
  28:../libdaisy/src/hid/audio.h ****     {
  29:../libdaisy/src/hid/audio.h ****         size_t                        blocksize;
  30:../libdaisy/src/hid/audio.h ****         SaiHandle::Config::SampleRate samplerate;
  31:../libdaisy/src/hid/audio.h ****         float                         postgain;
  32:../libdaisy/src/hid/audio.h ****     };
  33:../libdaisy/src/hid/audio.h **** 
  34:../libdaisy/src/hid/audio.h ****     enum class Result
  35:../libdaisy/src/hid/audio.h ****     {
  36:../libdaisy/src/hid/audio.h ****         OK,
  37:../libdaisy/src/hid/audio.h ****         ERR,
  38:../libdaisy/src/hid/audio.h ****     };
  39:../libdaisy/src/hid/audio.h **** 
  40:../libdaisy/src/hid/audio.h ****     /** Non-Interleaving input buffer
  41:../libdaisy/src/hid/audio.h ****      * Buffer arranged by float[chn][sample] 
  42:../libdaisy/src/hid/audio.h ****      * const so that the user can't modify the input
  43:../libdaisy/src/hid/audio.h ****      */
  44:../libdaisy/src/hid/audio.h ****     typedef const float* const* InputBuffer;
  45:../libdaisy/src/hid/audio.h **** 
  46:../libdaisy/src/hid/audio.h ****     /** Non-Interleaving output buffer
ARM GAS  /var/folders/g8/1wk0j7gx1n5fw296n3mf_1g40000gn/T//cczcQ1mS.s 			page 8


  47:../libdaisy/src/hid/audio.h ****      * Arranged by float[chn][sample] 
  48:../libdaisy/src/hid/audio.h ****      */
  49:../libdaisy/src/hid/audio.h ****     typedef float** OutputBuffer;
  50:../libdaisy/src/hid/audio.h **** 
  51:../libdaisy/src/hid/audio.h ****     /** Type for a Non-Interleaving audio callback 
  52:../libdaisy/src/hid/audio.h ****      * Non-Interleaving audio callbacks in daisy will be of this type
  53:../libdaisy/src/hid/audio.h ****      */
  54:../libdaisy/src/hid/audio.h ****     typedef void (*AudioCallback)(InputBuffer  in,
  55:../libdaisy/src/hid/audio.h ****                                   OutputBuffer out,
  56:../libdaisy/src/hid/audio.h ****                                   size_t       size);
  57:../libdaisy/src/hid/audio.h **** 
  58:../libdaisy/src/hid/audio.h ****     /** Interleaving Input buffer
  59:../libdaisy/src/hid/audio.h ****      ** audio is prepared as { L0, R0, L1, R1, . . . LN, RN }]
  60:../libdaisy/src/hid/audio.h ****      ** this is const, as the user shouldn't modify it
  61:../libdaisy/src/hid/audio.h ****     */
  62:../libdaisy/src/hid/audio.h ****     typedef const float* InterleavingInputBuffer;
  63:../libdaisy/src/hid/audio.h **** 
  64:../libdaisy/src/hid/audio.h ****     /** Interleaving Output buffer 
  65:../libdaisy/src/hid/audio.h ****      ** audio is prepared as { L0, R0, L1, R1, . . . LN, RN }
  66:../libdaisy/src/hid/audio.h ****     */
  67:../libdaisy/src/hid/audio.h ****     typedef float* InterleavingOutputBuffer;
  68:../libdaisy/src/hid/audio.h **** 
  69:../libdaisy/src/hid/audio.h ****     /** Interleaving Audio Callback 
  70:../libdaisy/src/hid/audio.h ****      * Interleaving audio callbacks in daisy must be of this type
  71:../libdaisy/src/hid/audio.h ****      */
  72:../libdaisy/src/hid/audio.h ****     typedef void (*InterleavingAudioCallback)(InterleavingInputBuffer  in,
  73:../libdaisy/src/hid/audio.h ****                                               InterleavingOutputBuffer out,
  74:../libdaisy/src/hid/audio.h ****                                               size_t                   size);
  75:../libdaisy/src/hid/audio.h **** 
  76:../libdaisy/src/hid/audio.h ****     AudioHandle() : pimpl_(nullptr) {}
  77:../libdaisy/src/hid/audio.h ****     ~AudioHandle() {}
  81              		.loc 6 77 5 is_stmt 1 view .LVU9
  82              		.loc 6 77 5 is_stmt 0 view .LVU10
  83              	.LBE332:
  84              		.loc 2 22 19 view .LVU11
  85 0000 7047     		bx	lr
  86              		.cfi_endproc
  87              	.LFE4390:
  89              		.weak	_ZN5daisy9DaisySeedD1Ev
  90              		.thumb_set _ZN5daisy9DaisySeedD1Ev,_ZN5daisy9DaisySeedD2Ev
  91 0002 00BF     		.section	.text._ZN5daisy11MidiHandlerINS_17MidiUartTransportEED2Ev,"axG",%progbits,_ZN5daisy11Midi
  92              		.align	1
  93              		.p2align 2,,3
  94              		.weak	_ZN5daisy11MidiHandlerINS_17MidiUartTransportEED2Ev
  95              		.syntax unified
  96              		.thumb
  97              		.thumb_func
  98              		.fpu fpv5-d16
 100              	_ZN5daisy11MidiHandlerINS_17MidiUartTransportEED2Ev:
 101              	.LVL2:
 102              	.LFB4999:
 103              		.file 7 "../libdaisy/src/hid/midi.h"
   1:../libdaisy/src/hid/midi.h **** #pragma once
   2:../libdaisy/src/hid/midi.h **** #ifndef DSY_MIDI_H
   3:../libdaisy/src/hid/midi.h **** #define DSY_MIDI_H
   4:../libdaisy/src/hid/midi.h **** 
   5:../libdaisy/src/hid/midi.h **** // TODO: make this adjustable
ARM GAS  /var/folders/g8/1wk0j7gx1n5fw296n3mf_1g40000gn/T//cczcQ1mS.s 			page 9


   6:../libdaisy/src/hid/midi.h **** #define SYSEX_BUFFER_LEN 128
   7:../libdaisy/src/hid/midi.h **** 
   8:../libdaisy/src/hid/midi.h **** #include <stdint.h>
   9:../libdaisy/src/hid/midi.h **** #include <stdlib.h>
  10:../libdaisy/src/hid/midi.h **** #include "per/uart.h"
  11:../libdaisy/src/hid/midi.h **** #include "util/ringbuffer.h"
  12:../libdaisy/src/hid/midi.h **** #include "hid/MidiEvent.h"
  13:../libdaisy/src/hid/midi.h **** #include "hid/usb_midi.h"
  14:../libdaisy/src/hid/midi.h **** #include "sys/system.h"
  15:../libdaisy/src/hid/midi.h **** 
  16:../libdaisy/src/hid/midi.h **** namespace daisy
  17:../libdaisy/src/hid/midi.h **** {
  18:../libdaisy/src/hid/midi.h **** /** @brief   Transport layer for sending and receiving MIDI data over UART 
  19:../libdaisy/src/hid/midi.h ****  *  @details This is the mode of communication used for TRS and DIN MIDI
  20:../libdaisy/src/hid/midi.h ****  *  @ingroup midi
  21:../libdaisy/src/hid/midi.h **** */
  22:../libdaisy/src/hid/midi.h **** class MidiUartTransport
  23:../libdaisy/src/hid/midi.h **** {
  24:../libdaisy/src/hid/midi.h ****   public:
  25:../libdaisy/src/hid/midi.h ****     MidiUartTransport() {}
  26:../libdaisy/src/hid/midi.h ****     ~MidiUartTransport() {}
  27:../libdaisy/src/hid/midi.h **** 
  28:../libdaisy/src/hid/midi.h ****     struct Config
  29:../libdaisy/src/hid/midi.h ****     {
  30:../libdaisy/src/hid/midi.h ****         UartHandler::Config::Peripheral periph;
  31:../libdaisy/src/hid/midi.h ****         dsy_gpio_pin                    rx;
  32:../libdaisy/src/hid/midi.h ****         dsy_gpio_pin                    tx;
  33:../libdaisy/src/hid/midi.h **** 
  34:../libdaisy/src/hid/midi.h ****         Config()
  35:../libdaisy/src/hid/midi.h ****         {
  36:../libdaisy/src/hid/midi.h ****             periph = UartHandler::Config::Peripheral::USART_1;
  37:../libdaisy/src/hid/midi.h ****             rx     = {DSY_GPIOB, 7};
  38:../libdaisy/src/hid/midi.h ****             tx     = {DSY_GPIOB, 6};
  39:../libdaisy/src/hid/midi.h ****         }
  40:../libdaisy/src/hid/midi.h ****     };
  41:../libdaisy/src/hid/midi.h **** 
  42:../libdaisy/src/hid/midi.h ****     inline void Init(Config config)
  43:../libdaisy/src/hid/midi.h ****     {
  44:../libdaisy/src/hid/midi.h ****         UartHandler::Config uart_config;
  45:../libdaisy/src/hid/midi.h **** 
  46:../libdaisy/src/hid/midi.h ****         //defaults
  47:../libdaisy/src/hid/midi.h ****         uart_config.baudrate   = 31250;
  48:../libdaisy/src/hid/midi.h ****         uart_config.stopbits   = UartHandler::Config::StopBits::BITS_1;
  49:../libdaisy/src/hid/midi.h ****         uart_config.parity     = UartHandler::Config::Parity::NONE;
  50:../libdaisy/src/hid/midi.h ****         uart_config.mode       = UartHandler::Config::Mode::TX_RX;
  51:../libdaisy/src/hid/midi.h ****         uart_config.wordlength = UartHandler::Config::WordLength::BITS_8;
  52:../libdaisy/src/hid/midi.h **** 
  53:../libdaisy/src/hid/midi.h ****         //user settings
  54:../libdaisy/src/hid/midi.h ****         uart_config.periph        = config.periph;
  55:../libdaisy/src/hid/midi.h ****         uart_config.pin_config.rx = config.rx;
  56:../libdaisy/src/hid/midi.h ****         uart_config.pin_config.tx = config.tx;
  57:../libdaisy/src/hid/midi.h **** 
  58:../libdaisy/src/hid/midi.h ****         uart_.Init(uart_config);
  59:../libdaisy/src/hid/midi.h ****     }
  60:../libdaisy/src/hid/midi.h **** 
  61:../libdaisy/src/hid/midi.h ****     inline void    StartRx() { uart_.StartRx(); }
  62:../libdaisy/src/hid/midi.h ****     inline size_t  Readable() { return uart_.Readable(); }
ARM GAS  /var/folders/g8/1wk0j7gx1n5fw296n3mf_1g40000gn/T//cczcQ1mS.s 			page 10


  63:../libdaisy/src/hid/midi.h ****     inline uint8_t Rx() { return uart_.PopRx(); }
  64:../libdaisy/src/hid/midi.h ****     inline bool    RxActive() { return uart_.RxActive(); }
  65:../libdaisy/src/hid/midi.h ****     inline void    FlushRx() { uart_.FlushRx(); }
  66:../libdaisy/src/hid/midi.h ****     inline void    Tx(uint8_t* buff, size_t size) { uart_.PollTx(buff, size); }
  67:../libdaisy/src/hid/midi.h **** 
  68:../libdaisy/src/hid/midi.h ****   private:
  69:../libdaisy/src/hid/midi.h ****     UartHandler uart_;
  70:../libdaisy/src/hid/midi.h **** };
  71:../libdaisy/src/hid/midi.h **** 
  72:../libdaisy/src/hid/midi.h **** /** 
  73:../libdaisy/src/hid/midi.h ****     @brief Simple MIDI Handler \n 
  74:../libdaisy/src/hid/midi.h ****     Parses bytes from an input into valid MidiEvents. \n 
  75:../libdaisy/src/hid/midi.h ****     The MidiEvents fill a FIFO queue that the user can pop messages from.
  76:../libdaisy/src/hid/midi.h ****     @author shensley
  77:../libdaisy/src/hid/midi.h ****     @date March 2020
  78:../libdaisy/src/hid/midi.h ****     @ingroup midi
  79:../libdaisy/src/hid/midi.h **** */
  80:../libdaisy/src/hid/midi.h **** template <typename Transport>
  81:../libdaisy/src/hid/midi.h **** class MidiHandler
  82:../libdaisy/src/hid/midi.h **** {
  83:../libdaisy/src/hid/midi.h ****   public:
  84:../libdaisy/src/hid/midi.h ****     MidiHandler() {}
  85:../libdaisy/src/hid/midi.h ****     ~MidiHandler() {}
 104              		.loc 7 85 5 is_stmt 1 view -0
 105              		.cfi_startproc
 106              		@ args = 0, pretend = 0, frame = 0
 107              		@ frame_needed = 0, uses_anonymous_args = 0
 108              		@ link register save eliminated.
 109              	.LBB333:
 110              	.LBI333:
  26:../libdaisy/src/hid/midi.h **** 
 111              		.loc 7 26 5 view .LVU13
  26:../libdaisy/src/hid/midi.h **** 
 112              		.loc 7 26 5 is_stmt 0 view .LVU14
 113              	.LBE333:
 114              		.loc 7 85 21 view .LVU15
 115 0000 7047     		bx	lr
 116              		.cfi_endproc
 117              	.LFE4999:
 119              		.weak	_ZN5daisy11MidiHandlerINS_17MidiUartTransportEED1Ev
 120              		.thumb_set _ZN5daisy11MidiHandlerINS_17MidiUartTransportEED1Ev,_ZN5daisy11MidiHandlerINS_17MidiUar
 121 0002 00BF     		.section	.text._ZN12VoiceManagerILj24EED2Ev,"axG",%progbits,_ZN12VoiceManagerILj24EED5Ev,comdat
 122              		.align	1
 123              		.p2align 2,,3
 124              		.weak	_ZN12VoiceManagerILj24EED2Ev
 125              		.syntax unified
 126              		.thumb
 127              		.thumb_func
 128              		.fpu fpv5-d16
 130              	_ZN12VoiceManagerILj24EED2Ev:
 131              	.LVL3:
 132              	.LFB5002:
 133              		.file 8 "pluck.cpp"
   1:pluck.cpp     **** #include "daisysp.h"
   2:pluck.cpp     **** #include "daisy_seed.h"
   3:pluck.cpp     **** #include <algorithm>
   4:pluck.cpp     **** 
ARM GAS  /var/folders/g8/1wk0j7gx1n5fw296n3mf_1g40000gn/T//cczcQ1mS.s 			page 11


   5:pluck.cpp     **** using namespace daisysp;
   6:pluck.cpp     **** using namespace daisy;
   7:pluck.cpp     **** using namespace daisy::seed;
   8:pluck.cpp     **** 
   9:pluck.cpp     **** class Voice
  10:pluck.cpp     **** {
  11:pluck.cpp     ****   public:
  12:pluck.cpp     ****     Voice() {}
  13:pluck.cpp     ****     ~Voice() {}
  14:pluck.cpp     ****     void Init(float samplerate)
  15:pluck.cpp     ****     {
  16:pluck.cpp     ****         active_ = false;
  17:pluck.cpp     ****         osc_.Init(samplerate);
  18:pluck.cpp     ****         osc_.SetAmp(0.75f);
  19:pluck.cpp     ****         osc_.SetWaveform(Oscillator::WAVE_POLYBLEP_TRI);
  20:pluck.cpp     ****         env_.Init(samplerate);
  21:pluck.cpp     ****         env_.SetSustainLevel(0.5f);
  22:pluck.cpp     ****         env_.SetTime(ADSR_SEG_ATTACK, 1.01f);
  23:pluck.cpp     ****         env_.SetTime(ADSR_SEG_DECAY, 0.005f);
  24:pluck.cpp     ****         env_.SetTime(ADSR_SEG_RELEASE, 0.2f);
  25:pluck.cpp     ****         filt_.Init(samplerate);
  26:pluck.cpp     ****         filt_.SetFreq(6000.f);
  27:pluck.cpp     ****         filt_.SetRes(0.6f);
  28:pluck.cpp     ****         filt_.SetDrive(0.8f);
  29:pluck.cpp     ****     }
  30:pluck.cpp     **** 
  31:pluck.cpp     ****     float Process()
  32:pluck.cpp     ****     {
  33:pluck.cpp     ****         if(active_)
  34:pluck.cpp     ****         {
  35:pluck.cpp     ****             float sig, amp;
  36:pluck.cpp     ****             amp = env_.Process(env_gate_);
  37:pluck.cpp     ****             if(!env_.IsRunning())
  38:pluck.cpp     ****                 active_ = false;
  39:pluck.cpp     ****             sig = osc_.Process();
  40:pluck.cpp     ****             filt_.Process(sig);
  41:pluck.cpp     ****             return filt_.Low() * (velocity_ / 127.f) * amp;
  42:pluck.cpp     ****         }
  43:pluck.cpp     ****         return 0.f;
  44:pluck.cpp     ****     }
  45:pluck.cpp     **** 
  46:pluck.cpp     ****     void OnNoteOn(float note, float velocity)
  47:pluck.cpp     ****     {
  48:pluck.cpp     ****         note_     = note;
  49:pluck.cpp     ****         velocity_ = velocity;
  50:pluck.cpp     ****         osc_.SetFreq(mtof(note_));
  51:pluck.cpp     ****         active_   = true;
  52:pluck.cpp     ****         env_gate_ = true;
  53:pluck.cpp     ****     }
  54:pluck.cpp     **** 
  55:pluck.cpp     ****     void OnNoteOff() { env_gate_ = false; }
  56:pluck.cpp     **** 
  57:pluck.cpp     ****     void SetCutoff(float val) { filt_.SetFreq(val); }
  58:pluck.cpp     **** 
  59:pluck.cpp     ****     inline bool  IsActive() const { return active_; }
  60:pluck.cpp     ****     inline float GetNote() const { return note_; }
  61:pluck.cpp     **** 
ARM GAS  /var/folders/g8/1wk0j7gx1n5fw296n3mf_1g40000gn/T//cczcQ1mS.s 			page 12


  62:pluck.cpp     ****   private:
  63:pluck.cpp     ****     Oscillator osc_;
  64:pluck.cpp     ****     Svf        filt_;
  65:pluck.cpp     ****     Adsr       env_;
  66:pluck.cpp     ****     float      note_, velocity_;
  67:pluck.cpp     ****     bool       active_;
  68:pluck.cpp     ****     bool       env_gate_;
  69:pluck.cpp     **** };
  70:pluck.cpp     **** 
  71:pluck.cpp     **** template <size_t max_voices>
  72:pluck.cpp     **** class VoiceManager
  73:pluck.cpp     **** {
  74:pluck.cpp     ****   public:
  75:pluck.cpp     ****     VoiceManager() {}
  76:pluck.cpp     ****     ~VoiceManager() {}
 134              		.loc 8 76 5 is_stmt 1 view -0
 135              		.cfi_startproc
 136              		@ args = 0, pretend = 0, frame = 0
 137              		@ frame_needed = 0, uses_anonymous_args = 0
 138              		@ link register save eliminated.
 139              		.loc 8 76 22 is_stmt 0 view .LVU17
 140 0000 7047     		bx	lr
 141              		.cfi_endproc
 142              	.LFE5002:
 144              		.weak	_ZN12VoiceManagerILj24EED1Ev
 145              		.thumb_set _ZN12VoiceManagerILj24EED1Ev,_ZN12VoiceManagerILj24EED2Ev
 146 0002 00BF     		.section	.text._ZL13AudioCallbackPKPKfPPfj,"ax",%progbits
 147              		.align	1
 148              		.p2align 2,,3
 149              		.syntax unified
 150              		.thumb
 151              		.thumb_func
 152              		.fpu fpv5-d16
 154              	_ZL13AudioCallbackPKPKfPPfj:
 155              	.LVL4:
 156              	.LFB4417:
  77:pluck.cpp     **** 
  78:pluck.cpp     ****     void Init(float samplerate)
  79:pluck.cpp     ****     {
  80:pluck.cpp     ****         for(size_t i = 0; i < max_voices; i++)
  81:pluck.cpp     ****         {
  82:pluck.cpp     ****             voices[i].Init(samplerate);
  83:pluck.cpp     ****         }
  84:pluck.cpp     ****     }
  85:pluck.cpp     **** 
  86:pluck.cpp     ****     float Process()
  87:pluck.cpp     ****     {
  88:pluck.cpp     ****         float sum;
  89:pluck.cpp     ****         sum = 0.f;
  90:pluck.cpp     ****         for(size_t i = 0; i < max_voices; i++)
  91:pluck.cpp     ****         {
  92:pluck.cpp     ****             sum += voices[i].Process();
  93:pluck.cpp     ****         }
  94:pluck.cpp     ****         return sum;
  95:pluck.cpp     ****     }
  96:pluck.cpp     **** 
  97:pluck.cpp     ****     void OnNoteOn(float notenumber, float velocity)
ARM GAS  /var/folders/g8/1wk0j7gx1n5fw296n3mf_1g40000gn/T//cczcQ1mS.s 			page 13


  98:pluck.cpp     ****     {
  99:pluck.cpp     ****         Voice *v = FindFreeVoice();
 100:pluck.cpp     ****         if(v == NULL)
 101:pluck.cpp     ****             return;
 102:pluck.cpp     ****         v->OnNoteOn(notenumber, velocity);
 103:pluck.cpp     ****     }
 104:pluck.cpp     **** 
 105:pluck.cpp     ****     void OnNoteOff(float notenumber, float velocity)
 106:pluck.cpp     ****     {
 107:pluck.cpp     ****         for(size_t i = 0; i < max_voices; i++)
 108:pluck.cpp     ****         {
 109:pluck.cpp     ****             Voice *v = &voices[i];
 110:pluck.cpp     ****             if(v->IsActive() && v->GetNote() == notenumber)
 111:pluck.cpp     ****             {
 112:pluck.cpp     ****                 v->OnNoteOff();
 113:pluck.cpp     ****             }
 114:pluck.cpp     ****         }
 115:pluck.cpp     ****     }
 116:pluck.cpp     **** 
 117:pluck.cpp     ****     void FreeAllVoices()
 118:pluck.cpp     ****     {
 119:pluck.cpp     ****         for(size_t i = 0; i < max_voices; i++)
 120:pluck.cpp     ****         {
 121:pluck.cpp     ****             voices[i].OnNoteOff();
 122:pluck.cpp     ****         }
 123:pluck.cpp     ****     }
 124:pluck.cpp     **** 
 125:pluck.cpp     ****     void SetCutoff(float all_val)
 126:pluck.cpp     ****     {
 127:pluck.cpp     ****         for(size_t i = 0; i < max_voices; i++)
 128:pluck.cpp     ****         {
 129:pluck.cpp     ****             voices[i].SetCutoff(all_val);
 130:pluck.cpp     ****         }
 131:pluck.cpp     ****     }
 132:pluck.cpp     **** 
 133:pluck.cpp     **** 
 134:pluck.cpp     ****   private:
 135:pluck.cpp     ****     Voice  voices[max_voices];
 136:pluck.cpp     ****     Voice *FindFreeVoice()
 137:pluck.cpp     ****     {
 138:pluck.cpp     ****         Voice *v = NULL;
 139:pluck.cpp     ****         for(size_t i = 0; i < max_voices; i++)
 140:pluck.cpp     ****         {
 141:pluck.cpp     ****             if(!voices[i].IsActive())
 142:pluck.cpp     ****             {
 143:pluck.cpp     ****                 v = &voices[i];
 144:pluck.cpp     ****                 break;
 145:pluck.cpp     ****             }
 146:pluck.cpp     ****         }
 147:pluck.cpp     ****         return v;
 148:pluck.cpp     ****     }
 149:pluck.cpp     **** };
 150:pluck.cpp     **** 
 151:pluck.cpp     **** static DaisySeed seed_handle;
 152:pluck.cpp     **** static ReverbSc verb;
 153:pluck.cpp     **** MidiUartHandler midi;
 154:pluck.cpp     **** static VoiceManager<24> voice_handler;
ARM GAS  /var/folders/g8/1wk0j7gx1n5fw296n3mf_1g40000gn/T//cczcQ1mS.s 			page 14


 155:pluck.cpp     **** 
 156:pluck.cpp     **** static void AudioCallback(const float * const*inBuffer, float **outBuffer, unsigned int inNumSample
 157:pluck.cpp     **** {
 157              		.loc 8 157 1 is_stmt 1 view -0
 158              		.cfi_startproc
 159              		@ args = 0, pretend = 0, frame = 16
 160              		@ frame_needed = 0, uses_anonymous_args = 0
 158:pluck.cpp     ****     // Assign Output Buffers
 159:pluck.cpp     ****     float *out_left = outBuffer[0];
 161              		.loc 8 159 5 view .LVU19
 157:pluck.cpp     ****     // Assign Output Buffers
 162              		.loc 8 157 1 is_stmt 0 view .LVU20
 163 0000 2DE9F043 		push	{r4, r5, r6, r7, r8, r9, lr}
 164              		.cfi_def_cfa_offset 28
 165              		.cfi_offset 4, -28
 166              		.cfi_offset 5, -24
 167              		.cfi_offset 6, -20
 168              		.cfi_offset 7, -16
 169              		.cfi_offset 8, -12
 170              		.cfi_offset 9, -8
 171              		.cfi_offset 14, -4
 160:pluck.cpp     ****     float *out_right = outBuffer[1];
 161:pluck.cpp     ****     float dry = 0.0f, send = 0.0f, wetl = 0.0f, wetr = 0.0f; // Effects Vars
 172              		.loc 8 161 23 view .LVU21
 173 0004 0023     		movs	r3, #0
 157:pluck.cpp     ****     // Assign Output Buffers
 174              		.loc 8 157 1 view .LVU22
 175 0006 2DED028B 		vpush.64	{d8}
 176              		.cfi_def_cfa_offset 36
 177              		.cfi_offset 80, -36
 178              		.cfi_offset 81, -32
 179 000a 87B0     		sub	sp, sp, #28
 180              		.cfi_def_cfa_offset 64
 160:pluck.cpp     ****     float *out_right = outBuffer[1];
 181              		.loc 8 160 12 view .LVU23
 182 000c D1E90067 		ldrd	r6, r7, [r1]
 183              	.LVL5:
 184              		.loc 8 161 5 is_stmt 1 view .LVU24
 185              		.loc 8 161 23 is_stmt 0 view .LVU25
 186 0010 0393     		str	r3, [sp, #12]	@ float
 187              		.loc 8 161 36 view .LVU26
 188 0012 0493     		str	r3, [sp, #16]	@ float
 189              		.loc 8 161 49 view .LVU27
 190 0014 0593     		str	r3, [sp, #20]	@ float
 162:pluck.cpp     ****     for(size_t sample = 0; sample < inNumSamples; sample++)
 191              		.loc 8 162 5 is_stmt 1 view .LVU28
 192              	.LVL6:
 193              	.LBB349:
 194              		.loc 8 162 35 view .LVU29
 195 0016 002A     		cmp	r2, #0
 196 0018 58D0     		beq	.L6
 197 001a 2F4D     		ldr	r5, .L17
 198 001c 06EB8208 		add	r8, r6, r2, lsl #2
 199 0020 0DF11409 		add	r9, sp, #20
 200              	.LVL7:
 201              	.L12:
 202              		.loc 8 162 35 is_stmt 0 view .LVU30
ARM GAS  /var/folders/g8/1wk0j7gx1n5fw296n3mf_1g40000gn/T//cczcQ1mS.s 			page 15


 203 0024 2D4C     		ldr	r4, .L17+4
 204              	.LBB350:
 205              	.LBB351:
  89:pluck.cpp     ****         for(size_t i = 0; i < max_voices; i++)
 206              		.loc 8 89 9 view .LVU31
 207 0026 9FED2E8A 		vldr.32	s16, .L17+8
 208 002a 04E0     		b	.L10
 209              	.LVL8:
 210              	.L8:
  89:pluck.cpp     ****         for(size_t i = 0; i < max_voices; i++)
 211              		.loc 8 89 9 view .LVU32
 212 002c B034     		adds	r4, r4, #176
 213              	.LBB352:
  92:pluck.cpp     ****         }
 214              		.loc 8 92 13 view .LVU33
 215 002e 38EE008A 		vadd.f32	s16, s16, s0
 216              	.LVL9:
  90:pluck.cpp     ****         {
 217              		.loc 8 90 9 is_stmt 1 view .LVU34
  90:pluck.cpp     ****         {
 218              		.loc 8 90 29 view .LVU35
 219 0032 AC42     		cmp	r4, r5
 220 0034 2AD0     		beq	.L16
 221              	.LVL10:
 222              	.L10:
 223              	.LBB353:
 224              	.LBI353:
  31:pluck.cpp     ****     {
 225              		.loc 8 31 11 view .LVU36
 226              	.LBB354:
  33:pluck.cpp     ****         {
 227              		.loc 8 33 9 view .LVU37
 228              	.LBB355:
 229 0036 94F8AC30 		ldrb	r3, [r4, #172]	@ zero_extendqisi2
 230              	.LBE355:
  43:pluck.cpp     ****     }
 231              		.loc 8 43 16 is_stmt 0 view .LVU38
 232 003a 9FED290A 		vldr.32	s0, .L17+8
 233              	.LBB356:
  33:pluck.cpp     ****         {
 234              		.loc 8 33 9 view .LVU39
 235 003e 002B     		cmp	r3, #0
 236 0040 F4D0     		beq	.L8
 237              	.LVL11:
  33:pluck.cpp     ****         {
 238              		.loc 8 33 9 view .LVU40
 239              	.LBE356:
 240              	.LBB357:
 241              	.LBI357:
  31:pluck.cpp     ****     {
 242              		.loc 8 31 11 is_stmt 1 view .LVU41
 243              	.LBB358:
  35:pluck.cpp     ****             amp = env_.Process(env_gate_);
 244              		.loc 8 35 13 view .LVU42
  36:pluck.cpp     ****             if(!env_.IsRunning())
 245              		.loc 8 36 13 view .LVU43
  36:pluck.cpp     ****             if(!env_.IsRunning())
ARM GAS  /var/folders/g8/1wk0j7gx1n5fw296n3mf_1g40000gn/T//cczcQ1mS.s 			page 16


 246              		.loc 8 36 31 is_stmt 0 view .LVU44
 247 0042 04F17400 		add	r0, r4, #116
 248 0046 94F8AD10 		ldrb	r1, [r4, #173]	@ zero_extendqisi2
 249 004a FFF7FEFF 		bl	_ZN7daisysp4Adsr7ProcessEb
 250              	.LVL12:
  38:pluck.cpp     ****             sig = osc_.Process();
 251              		.loc 8 38 17 is_stmt 1 view .LVU45
  39:pluck.cpp     ****             filt_.Process(sig);
 252              		.loc 8 39 13 view .LVU46
  37:pluck.cpp     ****                 active_ = false;
 253              		.loc 8 37 13 is_stmt 0 view .LVU47
 254 004e 94F8A030 		ldrb	r3, [r4, #160]	@ zero_extendqisi2
  36:pluck.cpp     ****             if(!env_.IsRunning())
 255              		.loc 8 36 31 view .LVU48
 256 0052 F0EE408A 		vmov.f32	s17, s0
 257              	.LVL13:
  37:pluck.cpp     ****                 active_ = false;
 258              		.loc 8 37 13 is_stmt 1 view .LVU49
  37:pluck.cpp     ****                 active_ = false;
 259              		.loc 8 37 13 is_stmt 0 view .LVU50
 260              	.LBE358:
 261              	.LBE357:
 262              	.LBE354:
 263              	.LBE353:
 264              	.LBE352:
 265              	.LBE351:
 266              	.LBE350:
 267              	.LBE349:
 268              		.file 9 "../DaisySP/Source/Control/adsr.h"
   1:../DaisySP/Source/Control/adsr.h **** #pragma once
   2:../DaisySP/Source/Control/adsr.h **** #ifndef DSY_ADSR_H
   3:../DaisySP/Source/Control/adsr.h **** #define DSY_ADSR_H
   4:../DaisySP/Source/Control/adsr.h **** 
   5:../DaisySP/Source/Control/adsr.h **** #include <stdint.h>
   6:../DaisySP/Source/Control/adsr.h **** #ifdef __cplusplus
   7:../DaisySP/Source/Control/adsr.h **** 
   8:../DaisySP/Source/Control/adsr.h **** namespace daisysp
   9:../DaisySP/Source/Control/adsr.h **** {
  10:../DaisySP/Source/Control/adsr.h **** /** Distinct stages that the phase of the envelope can be located in.
  11:../DaisySP/Source/Control/adsr.h **** - IDLE   = located at phase location 0, and not currently running
  12:../DaisySP/Source/Control/adsr.h **** - ATTACK  = First segment of envelope where phase moves from 0 to 1
  13:../DaisySP/Source/Control/adsr.h **** - DECAY   = Second segment of envelope where phase moves from 1 to SUSTAIN value
  14:../DaisySP/Source/Control/adsr.h **** - RELEASE =     Fourth segment of envelop where phase moves from SUSTAIN to 0
  15:../DaisySP/Source/Control/adsr.h **** */
  16:../DaisySP/Source/Control/adsr.h **** enum
  17:../DaisySP/Source/Control/adsr.h **** {
  18:../DaisySP/Source/Control/adsr.h ****     ADSR_SEG_IDLE    = 0,
  19:../DaisySP/Source/Control/adsr.h ****     ADSR_SEG_ATTACK  = 1,
  20:../DaisySP/Source/Control/adsr.h ****     ADSR_SEG_DECAY   = 2,
  21:../DaisySP/Source/Control/adsr.h ****     ADSR_SEG_RELEASE = 4
  22:../DaisySP/Source/Control/adsr.h **** };
  23:../DaisySP/Source/Control/adsr.h **** 
  24:../DaisySP/Source/Control/adsr.h **** 
  25:../DaisySP/Source/Control/adsr.h **** /** adsr envelope module
  26:../DaisySP/Source/Control/adsr.h **** 
  27:../DaisySP/Source/Control/adsr.h **** Original author(s) : Paul Batchelor
  28:../DaisySP/Source/Control/adsr.h **** 
ARM GAS  /var/folders/g8/1wk0j7gx1n5fw296n3mf_1g40000gn/T//cczcQ1mS.s 			page 17


  29:../DaisySP/Source/Control/adsr.h **** Ported from Soundpipe by Ben Sergentanis, May 2020
  30:../DaisySP/Source/Control/adsr.h ****  
  31:../DaisySP/Source/Control/adsr.h **** Remake by Steffan DIedrichsen, May 2021
  32:../DaisySP/Source/Control/adsr.h **** */
  33:../DaisySP/Source/Control/adsr.h **** class Adsr
  34:../DaisySP/Source/Control/adsr.h **** {
  35:../DaisySP/Source/Control/adsr.h ****   public:
  36:../DaisySP/Source/Control/adsr.h ****     Adsr() {}
  37:../DaisySP/Source/Control/adsr.h ****     ~Adsr() {}
  38:../DaisySP/Source/Control/adsr.h ****     /** Initializes the Adsr module.
  39:../DaisySP/Source/Control/adsr.h ****         \param sample_rate - The sample rate of the audio engine being run. 
  40:../DaisySP/Source/Control/adsr.h ****     */
  41:../DaisySP/Source/Control/adsr.h ****     void Init(float sample_rate, int blockSize = 1);
  42:../DaisySP/Source/Control/adsr.h ****     /**
  43:../DaisySP/Source/Control/adsr.h ****      \function Retrigger forces the envelope back to attack phase
  44:../DaisySP/Source/Control/adsr.h ****      \param hard  resets the history to zero, results in a click.
  45:../DaisySP/Source/Control/adsr.h ****      */
  46:../DaisySP/Source/Control/adsr.h ****     void Retrigger(bool hard);
  47:../DaisySP/Source/Control/adsr.h ****     /** Processes one sample through the filter and returns one sample.
  48:../DaisySP/Source/Control/adsr.h ****         \param gate - trigger the envelope, hold it to sustain 
  49:../DaisySP/Source/Control/adsr.h ****     */
  50:../DaisySP/Source/Control/adsr.h ****     float Process(bool gate);
  51:../DaisySP/Source/Control/adsr.h ****     /** Sets time
  52:../DaisySP/Source/Control/adsr.h ****         Set time per segment in seconds
  53:../DaisySP/Source/Control/adsr.h ****     */
  54:../DaisySP/Source/Control/adsr.h ****     void SetTime(int seg, float time);
  55:../DaisySP/Source/Control/adsr.h ****     void SetAttackTime(float timeInS, float shape = 0.0f);
  56:../DaisySP/Source/Control/adsr.h ****     void SetDecayTime(float timeInS);
  57:../DaisySP/Source/Control/adsr.h ****     void SetReleaseTime(float timeInS);
  58:../DaisySP/Source/Control/adsr.h **** 
  59:../DaisySP/Source/Control/adsr.h ****   private:
  60:../DaisySP/Source/Control/adsr.h ****     void SetTimeConstant(float timeInS, float& time, float& coeff);
  61:../DaisySP/Source/Control/adsr.h **** 
  62:../DaisySP/Source/Control/adsr.h ****   public:
  63:../DaisySP/Source/Control/adsr.h ****     /** Sustain level
  64:../DaisySP/Source/Control/adsr.h ****         \param sus_level - sets sustain level, 0...1.0
  65:../DaisySP/Source/Control/adsr.h ****     */
  66:../DaisySP/Source/Control/adsr.h ****     inline void SetSustainLevel(float sus_level)
  67:../DaisySP/Source/Control/adsr.h ****     {
  68:../DaisySP/Source/Control/adsr.h ****         sus_level = (sus_level <= 0.f) ? -0.01f // forces envelope into idle
  69:../DaisySP/Source/Control/adsr.h ****                                        : (sus_level > 1.f) ? 1.f : sus_level;
  70:../DaisySP/Source/Control/adsr.h ****         sus_level_ = sus_level;
  71:../DaisySP/Source/Control/adsr.h ****     }
  72:../DaisySP/Source/Control/adsr.h ****     /** get the current envelope segment
  73:../DaisySP/Source/Control/adsr.h ****         \return the segment of the envelope that the phase is currently located in.
  74:../DaisySP/Source/Control/adsr.h ****     */
  75:../DaisySP/Source/Control/adsr.h ****     inline uint8_t GetCurrentSegment() { return mode_; }
  76:../DaisySP/Source/Control/adsr.h ****     /** Tells whether envelope is active
  77:../DaisySP/Source/Control/adsr.h ****         \return true if the envelope is currently in any stage apart from idle.
  78:../DaisySP/Source/Control/adsr.h ****     */
  79:../DaisySP/Source/Control/adsr.h ****     inline bool IsRunning() const { return mode_ != ADSR_SEG_IDLE; }
 269              		.loc 9 79 37 is_stmt 1 view .LVU51
 270              	.LBB377:
 271              	.LBB375:
 272              	.LBB373:
 273              	.LBB371:
 274              	.LBB368:
ARM GAS  /var/folders/g8/1wk0j7gx1n5fw296n3mf_1g40000gn/T//cczcQ1mS.s 			page 18


 275              	.LBB365:
 276              	.LBB362:
 277              	.LBB359:
  39:pluck.cpp     ****             filt_.Process(sig);
 278              		.loc 8 39 31 is_stmt 0 view .LVU52
 279 0056 2046     		mov	r0, r4
  37:pluck.cpp     ****                 active_ = false;
 280              		.loc 8 37 13 view .LVU53
 281 0058 0BB9     		cbnz	r3, .L9
  38:pluck.cpp     ****             sig = osc_.Process();
 282              		.loc 8 38 25 view .LVU54
 283 005a 84F8AC30 		strb	r3, [r4, #172]
 284              	.L9:
  39:pluck.cpp     ****             filt_.Process(sig);
 285              		.loc 8 39 31 view .LVU55
 286 005e FFF7FEFF 		bl	_ZN7daisysp10Oscillator7ProcessEv
 287              	.LVL14:
  40:pluck.cpp     ****             return filt_.Low() * (velocity_ / 127.f) * amp;
 288              		.loc 8 40 13 is_stmt 1 view .LVU56
  40:pluck.cpp     ****             return filt_.Low() * (velocity_ / 127.f) * amp;
 289              		.loc 8 40 26 is_stmt 0 view .LVU57
 290 0062 04F12800 		add	r0, r4, #40
 291 0066 FFF7FEFF 		bl	_ZN7daisysp3Svf7ProcessEf
 292              	.LVL15:
  41:pluck.cpp     ****         }
 293              		.loc 8 41 13 is_stmt 1 view .LVU58
  41:pluck.cpp     ****         }
 294              		.loc 8 41 13 is_stmt 0 view .LVU59
 295              	.LBE359:
 296              	.LBE362:
 297              	.LBE365:
 298              	.LBE368:
 299              	.LBE371:
 300              	.LBE373:
 301              	.LBE375:
 302              	.LBE377:
 303              		.file 10 "../DaisySP/Source/Filters/svf.h"
   1:../DaisySP/Source/Filters/svf.h **** #pragma once
   2:../DaisySP/Source/Filters/svf.h **** #ifndef DSY_SVF_H
   3:../DaisySP/Source/Filters/svf.h **** #define DSY_SVF_H
   4:../DaisySP/Source/Filters/svf.h **** 
   5:../DaisySP/Source/Filters/svf.h **** namespace daisysp
   6:../DaisySP/Source/Filters/svf.h **** {
   7:../DaisySP/Source/Filters/svf.h **** /**      Double Sampled, Stable State Variable Filter
   8:../DaisySP/Source/Filters/svf.h **** 
   9:../DaisySP/Source/Filters/svf.h **** Credit to Andrew Simper from musicdsp.org
  10:../DaisySP/Source/Filters/svf.h **** 
  11:../DaisySP/Source/Filters/svf.h **** This is his "State Variable Filter (Double Sampled, Stable)"
  12:../DaisySP/Source/Filters/svf.h **** 
  13:../DaisySP/Source/Filters/svf.h **** Additional thanks to Laurent de Soras for stability limit, and 
  14:../DaisySP/Source/Filters/svf.h **** Stefan Diedrichsen for the correct notch output
  15:../DaisySP/Source/Filters/svf.h **** 
  16:../DaisySP/Source/Filters/svf.h **** Ported by: Stephen Hensley
  17:../DaisySP/Source/Filters/svf.h **** */
  18:../DaisySP/Source/Filters/svf.h **** class Svf
  19:../DaisySP/Source/Filters/svf.h **** {
  20:../DaisySP/Source/Filters/svf.h ****   public:
ARM GAS  /var/folders/g8/1wk0j7gx1n5fw296n3mf_1g40000gn/T//cczcQ1mS.s 			page 19


  21:../DaisySP/Source/Filters/svf.h ****     Svf() {}
  22:../DaisySP/Source/Filters/svf.h ****     ~Svf() {}
  23:../DaisySP/Source/Filters/svf.h ****     /** Initializes the filter
  24:../DaisySP/Source/Filters/svf.h ****         float sample_rate - sample rate of the audio engine being run, and the frequency that the P
  25:../DaisySP/Source/Filters/svf.h ****     */
  26:../DaisySP/Source/Filters/svf.h ****     void Init(float sample_rate);
  27:../DaisySP/Source/Filters/svf.h **** 
  28:../DaisySP/Source/Filters/svf.h **** 
  29:../DaisySP/Source/Filters/svf.h ****     /** 
  30:../DaisySP/Source/Filters/svf.h ****         Process the input signal, updating all of the outputs.
  31:../DaisySP/Source/Filters/svf.h ****     */
  32:../DaisySP/Source/Filters/svf.h ****     void Process(float in);
  33:../DaisySP/Source/Filters/svf.h **** 
  34:../DaisySP/Source/Filters/svf.h **** 
  35:../DaisySP/Source/Filters/svf.h ****     /** sets the frequency of the cutoff frequency. 
  36:../DaisySP/Source/Filters/svf.h ****         f must be between 0.0 and sample_rate / 3
  37:../DaisySP/Source/Filters/svf.h ****     */
  38:../DaisySP/Source/Filters/svf.h ****     void SetFreq(float f);
  39:../DaisySP/Source/Filters/svf.h **** 
  40:../DaisySP/Source/Filters/svf.h ****     /** sets the resonance of the filter.
  41:../DaisySP/Source/Filters/svf.h ****         Must be between 0.0 and 1.0 to ensure stability.
  42:../DaisySP/Source/Filters/svf.h ****     */
  43:../DaisySP/Source/Filters/svf.h ****     void SetRes(float r);
  44:../DaisySP/Source/Filters/svf.h **** 
  45:../DaisySP/Source/Filters/svf.h ****     /** sets the drive of the filter 
  46:../DaisySP/Source/Filters/svf.h ****         affects the response of the resonance of the filter
  47:../DaisySP/Source/Filters/svf.h ****     */
  48:../DaisySP/Source/Filters/svf.h ****     void SetDrive(float d);
  49:../DaisySP/Source/Filters/svf.h ****     /** lowpass output
  50:../DaisySP/Source/Filters/svf.h ****         \return low pass output of the filter
  51:../DaisySP/Source/Filters/svf.h ****     */
  52:../DaisySP/Source/Filters/svf.h ****     inline float Low() { return out_low_; }
 304              		.loc 10 52 26 is_stmt 1 view .LVU60
 305              	.LBB378:
 306              	.LBB376:
 307              	.LBB374:
 308              	.LBB372:
 309              	.LBB369:
 310              	.LBB366:
 311              	.LBB363:
 312              	.LBB360:
  41:pluck.cpp     ****         }
 313              		.loc 8 41 45 is_stmt 0 view .LVU61
 314 006a D4ED2A6A 		vldr.32	s13, [r4, #168]
 315 006e 9FED1D7A 		vldr.32	s14, .L17+12
 316 0072 B034     		adds	r4, r4, #176
  41:pluck.cpp     ****         }
 317              		.loc 8 41 32 view .LVU62
 318 0074 14ED160A 		vldr.32	s0, [r4, #-88]
  41:pluck.cpp     ****         }
 319              		.loc 8 41 45 view .LVU63
 320 0078 C6EE877A 		vdiv.f32	s15, s13, s14
 321              	.LBE360:
 322              	.LBE363:
 323              	.LBE366:
 324              	.LBE369:
  90:pluck.cpp     ****         {
ARM GAS  /var/folders/g8/1wk0j7gx1n5fw296n3mf_1g40000gn/T//cczcQ1mS.s 			page 20


 325              		.loc 8 90 29 view .LVU64
 326 007c AC42     		cmp	r4, r5
 327              	.LBB370:
 328              	.LBB367:
 329              	.LBB364:
 330              	.LBB361:
  41:pluck.cpp     ****         }
 331              		.loc 8 41 32 view .LVU65
 332 007e 67EE807A 		vmul.f32	s15, s15, s0
  41:pluck.cpp     ****         }
 333              		.loc 8 41 56 view .LVU66
 334 0082 27EEA80A 		vmul.f32	s0, s15, s17
 335              	.LVL16:
  41:pluck.cpp     ****         }
 336              		.loc 8 41 56 view .LVU67
 337              	.LBE361:
 338              	.LBE364:
 339              	.LBE367:
 340              	.LBE370:
  92:pluck.cpp     ****         }
 341              		.loc 8 92 13 view .LVU68
 342 0086 38EE008A 		vadd.f32	s16, s16, s0
 343              	.LVL17:
  90:pluck.cpp     ****         {
 344              		.loc 8 90 9 is_stmt 1 view .LVU69
  90:pluck.cpp     ****         {
 345              		.loc 8 90 29 view .LVU70
 346 008a D4D1     		bne	.L10
 347              	.L16:
 348              	.LVL18:
  90:pluck.cpp     ****         {
 349              		.loc 8 90 29 is_stmt 0 view .LVU71
 350              	.LBE372:
 351              	.LBE374:
 352              	.LBE376:
 163:pluck.cpp     ****     {
 164:pluck.cpp     ****         // get dry sample from the state of the voices
 165:pluck.cpp     ****         dry  = voice_handler.Process() * 0.5f; 
 353              		.loc 8 165 14 view .LVU72
 354 008c B6EE007A 		vmov.f32	s14, #5.0e-1
 166:pluck.cpp     ****         // run an attenuated dry signal through the reverb
 167:pluck.cpp     ****         send = dry * 0.45f;
 355              		.loc 8 167 20 view .LVU73
 356 0090 DFED157A 		vldr.32	s15, .L17+16
 168:pluck.cpp     ****         verb.Process(send, send, &wetl, &wetr);
 357              		.loc 8 168 21 view .LVU74
 358 0094 03AA     		add	r2, sp, #12
 359 0096 04AB     		add	r3, sp, #16
 360 0098 1448     		ldr	r0, .L17+20
 165:pluck.cpp     ****         // run an attenuated dry signal through the reverb
 361              		.loc 8 165 14 view .LVU75
 362 009a 28EE078A 		vmul.f32	s16, s16, s14
 363              	.LVL19:
 167:pluck.cpp     ****         verb.Process(send, send, &wetl, &wetr);
 364              		.loc 8 167 9 is_stmt 1 view .LVU76
 365              		.loc 8 168 21 is_stmt 0 view .LVU77
 366 009e 1146     		mov	r1, r2
ARM GAS  /var/folders/g8/1wk0j7gx1n5fw296n3mf_1g40000gn/T//cczcQ1mS.s 			page 21


 367 00a0 CDF80090 		str	r9, [sp]
 167:pluck.cpp     ****         verb.Process(send, send, &wetl, &wetr);
 368              		.loc 8 167 20 view .LVU78
 369 00a4 68EE277A 		vmul.f32	s15, s16, s15
 167:pluck.cpp     ****         verb.Process(send, send, &wetl, &wetr);
 370              		.loc 8 167 14 view .LVU79
 371 00a8 CDED037A 		vstr.32	s15, [sp, #12]
 372              		.loc 8 168 9 is_stmt 1 view .LVU80
 373              		.loc 8 168 21 is_stmt 0 view .LVU81
 374 00ac FFF7FEFF 		bl	_ZN7daisysp8ReverbSc7ProcessERKfS2_PfS3_
 375              	.LVL20:
 169:pluck.cpp     ****         // sum the dry oscillator and processed reverb signal
 170:pluck.cpp     ****         out_left[sample]  = dry + wetl;
 376              		.loc 8 170 9 is_stmt 1 view .LVU82
 377              		.loc 8 170 33 is_stmt 0 view .LVU83
 378 00b0 DDED047A 		vldr.32	s15, [sp, #16]
 379 00b4 77EE887A 		vadd.f32	s15, s15, s16
 380              		.loc 8 170 27 view .LVU84
 381 00b8 E6EC017A 		vstmia.32	r6!, {s15}
 171:pluck.cpp     ****         out_right[sample] = dry + wetr;
 382              		.loc 8 171 9 is_stmt 1 view .LVU85
 162:pluck.cpp     ****     {
 383              		.loc 8 162 35 is_stmt 0 view .LVU86
 384 00bc 4645     		cmp	r6, r8
 385              		.loc 8 171 33 view .LVU87
 386 00be DDED057A 		vldr.32	s15, [sp, #20]
 387 00c2 37EE888A 		vadd.f32	s16, s15, s16
 388              	.LVL21:
 389              		.loc 8 171 27 view .LVU88
 390 00c6 A7EC018A 		vstmia.32	r7!, {s16}
 162:pluck.cpp     ****     {
 391              		.loc 8 162 5 is_stmt 1 view .LVU89
 162:pluck.cpp     ****     {
 392              		.loc 8 162 35 view .LVU90
 393 00ca ABD1     		bne	.L12
 394              	.L6:
 162:pluck.cpp     ****     {
 395              		.loc 8 162 35 is_stmt 0 view .LVU91
 396              	.LBE378:
 172:pluck.cpp     ****     }
 173:pluck.cpp     **** }
 397              		.loc 8 173 1 view .LVU92
 398 00cc 07B0     		add	sp, sp, #28
 399              		.cfi_def_cfa_offset 36
 400              		@ sp needed
 401 00ce BDEC028B 		vldm	sp!, {d8}
 402              		.cfi_restore 80
 403              		.cfi_restore 81
 404              		.cfi_def_cfa_offset 28
 405 00d2 BDE8F083 		pop	{r4, r5, r6, r7, r8, r9, pc}
 406              	.L18:
 407 00d6 00BF     		.align	2
 408              	.L17:
 409 00d8 80100000 		.word	_ZL13voice_handler+4224
 410 00dc 00000000 		.word	_ZL13voice_handler
 411 00e0 00000000 		.word	0
 412 00e4 0000FE42 		.word	1123942400
ARM GAS  /var/folders/g8/1wk0j7gx1n5fw296n3mf_1g40000gn/T//cczcQ1mS.s 			page 22


 413 00e8 6666E63E 		.word	1055286886
 414 00ec 00000000 		.word	_ZL4verb
 415              		.cfi_endproc
 416              	.LFE4417:
 418              		.section	.text._Z17HandleMidiMessageN5daisy9MidiEventE,"ax",%progbits
 419              		.align	1
 420              		.p2align 2,,3
 421              		.global	_Z17HandleMidiMessageN5daisy9MidiEventE
 422              		.syntax unified
 423              		.thumb
 424              		.thumb_func
 425              		.fpu fpv5-d16
 427              	_Z17HandleMidiMessageN5daisy9MidiEventE:
 428              	.LFB4418:
 174:pluck.cpp     **** 
 175:pluck.cpp     **** // Typical Switch case for Message Type.
 176:pluck.cpp     **** void HandleMidiMessage(MidiEvent m)
 177:pluck.cpp     **** {
 429              		.loc 8 177 1 is_stmt 1 view -0
 430              		.cfi_startproc
 431              		@ args = 144, pretend = 16, frame = 0
 432              		@ frame_needed = 0, uses_anonymous_args = 0
 433 0000 84B0     		sub	sp, sp, #16
 434              		.cfi_def_cfa_offset 16
 435 0002 38B5     		push	{r3, r4, r5, lr}
 436              		.cfi_def_cfa_offset 32
 437              		.cfi_offset 3, -32
 438              		.cfi_offset 4, -28
 439              		.cfi_offset 5, -24
 440              		.cfi_offset 14, -20
 441              	.LVL22:
 442              		.loc 8 177 1 is_stmt 0 view .LVU94
 443 0004 04AC     		add	r4, sp, #16
 444 0006 84E80F00 		stm	r4, {r0, r1, r2, r3}
 445              	.LVL23:
 446              	.LBB408:
 178:pluck.cpp     ****     switch(m.type)
 447              		.loc 8 178 14 view .LVU95
 448 000a 9DF81030 		ldrb	r3, [sp, #16]	@ zero_extendqisi2
 449 000e 9DF81820 		ldrb	r2, [sp, #24]	@ zero_extendqisi2
 450              	.LVL24:
 451              		.loc 8 178 14 view .LVU96
 452              	.LBE408:
 453              		.loc 8 178 5 is_stmt 1 view .LVU97
 454              	.LBB479:
 455 0012 3BB3     		cbz	r3, .L20
 456 0014 012B     		cmp	r3, #1
 457 0016 21D1     		bne	.L19
 458 0018 9DF81930 		ldrb	r3, [sp, #25]	@ zero_extendqisi2
 459 001c 07EE103A 		vmov	s14, r3	@ int
 460              	.LBE479:
 179:pluck.cpp     ****     {
 180:pluck.cpp     ****         case NoteOn:
 461              		.loc 8 180 9 view .LVU98
 181:pluck.cpp     ****         {
 462              		.loc 8 181 9 view .LVU99
 463              	.LBB480:
ARM GAS  /var/folders/g8/1wk0j7gx1n5fw296n3mf_1g40000gn/T//cczcQ1mS.s 			page 23


 464              	.LBB409:
 182:pluck.cpp     ****             NoteOnEvent p = m.AsNoteOn();
 465              		.loc 8 182 13 view .LVU100
 466              	.LVL25:
 467              	.LBB410:
 468              	.LBI410:
 469              		.file 11 "../libdaisy/src/hid/MidiEvent.h"
   1:../libdaisy/src/hid/MidiEvent.h **** namespace daisy
   2:../libdaisy/src/hid/MidiEvent.h **** {
   3:../libdaisy/src/hid/MidiEvent.h **** /** @addtogroup midi MIDI
   4:../libdaisy/src/hid/MidiEvent.h ****  *  @ingroup human_interface
   5:../libdaisy/src/hid/MidiEvent.h ****  *  @ingroup libdaisy
   6:../libdaisy/src/hid/MidiEvent.h ****  *  @brief MIDI handlers, transports, and message types
   7:../libdaisy/src/hid/MidiEvent.h ****  *  @{
   8:../libdaisy/src/hid/MidiEvent.h ****  */
   9:../libdaisy/src/hid/MidiEvent.h **** 
  10:../libdaisy/src/hid/MidiEvent.h **** /** @defgroup midi_events MIDI_EVENTS 
  11:../libdaisy/src/hid/MidiEvent.h ****  *  @{
  12:../libdaisy/src/hid/MidiEvent.h **** */
  13:../libdaisy/src/hid/MidiEvent.h **** 
  14:../libdaisy/src/hid/MidiEvent.h **** /** Parsed from the Status Byte, these are the common Midi Messages that can be handled. \n
  15:../libdaisy/src/hid/MidiEvent.h **** At this time only 3-byte messages are correctly parsed into MidiEvents.
  16:../libdaisy/src/hid/MidiEvent.h **** */
  17:../libdaisy/src/hid/MidiEvent.h **** enum MidiMessageType
  18:../libdaisy/src/hid/MidiEvent.h **** {
  19:../libdaisy/src/hid/MidiEvent.h ****     NoteOff,               /**< & */
  20:../libdaisy/src/hid/MidiEvent.h ****     NoteOn,                /**< & */
  21:../libdaisy/src/hid/MidiEvent.h ****     PolyphonicKeyPressure, /**< & */
  22:../libdaisy/src/hid/MidiEvent.h ****     ControlChange,         /**< & */
  23:../libdaisy/src/hid/MidiEvent.h ****     ProgramChange,         /**< & */
  24:../libdaisy/src/hid/MidiEvent.h ****     ChannelPressure,       /**< & */
  25:../libdaisy/src/hid/MidiEvent.h ****     PitchBend,             /**< & */
  26:../libdaisy/src/hid/MidiEvent.h ****     SystemCommon,          /**< & */
  27:../libdaisy/src/hid/MidiEvent.h ****     SystemRealTime,        /**< & */
  28:../libdaisy/src/hid/MidiEvent.h ****     ChannelMode,           /**< & */
  29:../libdaisy/src/hid/MidiEvent.h ****     MessageLast,           /**< & */
  30:../libdaisy/src/hid/MidiEvent.h **** };
  31:../libdaisy/src/hid/MidiEvent.h **** 
  32:../libdaisy/src/hid/MidiEvent.h **** enum SystemCommonType
  33:../libdaisy/src/hid/MidiEvent.h **** {
  34:../libdaisy/src/hid/MidiEvent.h ****     SystemExclusive,     /**< & */
  35:../libdaisy/src/hid/MidiEvent.h ****     MTCQuarterFrame,     /**< & */
  36:../libdaisy/src/hid/MidiEvent.h ****     SongPositionPointer, /**< & */
  37:../libdaisy/src/hid/MidiEvent.h ****     SongSelect,          /**< & */
  38:../libdaisy/src/hid/MidiEvent.h ****     SCUndefined0,        /**< & */
  39:../libdaisy/src/hid/MidiEvent.h ****     SCUndefined1,        /**< & */
  40:../libdaisy/src/hid/MidiEvent.h ****     TuneRequest,         /**< & */
  41:../libdaisy/src/hid/MidiEvent.h ****     SysExEnd,            /**< & */
  42:../libdaisy/src/hid/MidiEvent.h ****     SystemCommonLast,    /**< & */
  43:../libdaisy/src/hid/MidiEvent.h **** };
  44:../libdaisy/src/hid/MidiEvent.h **** 
  45:../libdaisy/src/hid/MidiEvent.h **** enum SystemRealTimeType
  46:../libdaisy/src/hid/MidiEvent.h **** {
  47:../libdaisy/src/hid/MidiEvent.h ****     TimingClock,        /**< & */
  48:../libdaisy/src/hid/MidiEvent.h ****     SRTUndefined0,      /**< & */
  49:../libdaisy/src/hid/MidiEvent.h ****     Start,              /**< & */
  50:../libdaisy/src/hid/MidiEvent.h ****     Continue,           /**< & */
ARM GAS  /var/folders/g8/1wk0j7gx1n5fw296n3mf_1g40000gn/T//cczcQ1mS.s 			page 24


  51:../libdaisy/src/hid/MidiEvent.h ****     Stop,               /**< & */
  52:../libdaisy/src/hid/MidiEvent.h ****     SRTUndefined1,      /**< & */
  53:../libdaisy/src/hid/MidiEvent.h ****     ActiveSensing,      /**< & */
  54:../libdaisy/src/hid/MidiEvent.h ****     Reset,              /**< & */
  55:../libdaisy/src/hid/MidiEvent.h ****     SystemRealTimeLast, /**< & */
  56:../libdaisy/src/hid/MidiEvent.h **** };
  57:../libdaisy/src/hid/MidiEvent.h **** 
  58:../libdaisy/src/hid/MidiEvent.h **** enum ChannelModeType
  59:../libdaisy/src/hid/MidiEvent.h **** {
  60:../libdaisy/src/hid/MidiEvent.h ****     AllSoundOff,         /**< & */
  61:../libdaisy/src/hid/MidiEvent.h ****     ResetAllControllers, /**< & */
  62:../libdaisy/src/hid/MidiEvent.h ****     LocalControl,        /**< & */
  63:../libdaisy/src/hid/MidiEvent.h ****     AllNotesOff,         /**< & */
  64:../libdaisy/src/hid/MidiEvent.h ****     OmniModeOff,         /**< & */
  65:../libdaisy/src/hid/MidiEvent.h ****     OmniModeOn,          /**< & */
  66:../libdaisy/src/hid/MidiEvent.h ****     MonoModeOn,          /**< & */
  67:../libdaisy/src/hid/MidiEvent.h ****     PolyModeOn,          /**< & */
  68:../libdaisy/src/hid/MidiEvent.h ****     ChannelModeLast,     /**< & */
  69:../libdaisy/src/hid/MidiEvent.h **** };
  70:../libdaisy/src/hid/MidiEvent.h **** 
  71:../libdaisy/src/hid/MidiEvent.h **** /** Struct containing note, and velocity data for a given channel.
  72:../libdaisy/src/hid/MidiEvent.h **** Can be made from MidiEvent
  73:../libdaisy/src/hid/MidiEvent.h **** */
  74:../libdaisy/src/hid/MidiEvent.h **** struct NoteOffEvent
  75:../libdaisy/src/hid/MidiEvent.h **** {
  76:../libdaisy/src/hid/MidiEvent.h ****     int     channel;  /**< & */
  77:../libdaisy/src/hid/MidiEvent.h ****     uint8_t note;     /**< & */
  78:../libdaisy/src/hid/MidiEvent.h ****     uint8_t velocity; /**< & */
  79:../libdaisy/src/hid/MidiEvent.h **** };
  80:../libdaisy/src/hid/MidiEvent.h **** 
  81:../libdaisy/src/hid/MidiEvent.h **** 
  82:../libdaisy/src/hid/MidiEvent.h **** /** Struct containing note, and velocity data for a given channel.
  83:../libdaisy/src/hid/MidiEvent.h **** Can be made from MidiEvent
  84:../libdaisy/src/hid/MidiEvent.h **** */
  85:../libdaisy/src/hid/MidiEvent.h **** struct NoteOnEvent
  86:../libdaisy/src/hid/MidiEvent.h **** {
  87:../libdaisy/src/hid/MidiEvent.h ****     int     channel;  /**< & */
  88:../libdaisy/src/hid/MidiEvent.h ****     uint8_t note;     /**< & */
  89:../libdaisy/src/hid/MidiEvent.h ****     uint8_t velocity; /**< & */
  90:../libdaisy/src/hid/MidiEvent.h **** };
  91:../libdaisy/src/hid/MidiEvent.h **** /** Struct containing note, and pressure data for a given channel.
  92:../libdaisy/src/hid/MidiEvent.h **** Can be made from MidiEvent
  93:../libdaisy/src/hid/MidiEvent.h **** */
  94:../libdaisy/src/hid/MidiEvent.h **** struct PolyphonicKeyPressureEvent
  95:../libdaisy/src/hid/MidiEvent.h **** {
  96:../libdaisy/src/hid/MidiEvent.h ****     int     channel;
  97:../libdaisy/src/hid/MidiEvent.h ****     uint8_t note;
  98:../libdaisy/src/hid/MidiEvent.h ****     uint8_t pressure;
  99:../libdaisy/src/hid/MidiEvent.h **** };
 100:../libdaisy/src/hid/MidiEvent.h **** /** Struct containing control number, and value for a given channel.
 101:../libdaisy/src/hid/MidiEvent.h **** Can be made from MidiEvent
 102:../libdaisy/src/hid/MidiEvent.h **** */
 103:../libdaisy/src/hid/MidiEvent.h **** struct ControlChangeEvent
 104:../libdaisy/src/hid/MidiEvent.h **** {
 105:../libdaisy/src/hid/MidiEvent.h ****     int     channel;        /**< & */
 106:../libdaisy/src/hid/MidiEvent.h ****     uint8_t control_number; /**< & */
 107:../libdaisy/src/hid/MidiEvent.h ****     uint8_t value;          /**< & */
ARM GAS  /var/folders/g8/1wk0j7gx1n5fw296n3mf_1g40000gn/T//cczcQ1mS.s 			page 25


 108:../libdaisy/src/hid/MidiEvent.h **** };
 109:../libdaisy/src/hid/MidiEvent.h **** /** Struct containing new program number, for a given channel.
 110:../libdaisy/src/hid/MidiEvent.h **** Can be made from MidiEvent
 111:../libdaisy/src/hid/MidiEvent.h **** */
 112:../libdaisy/src/hid/MidiEvent.h **** struct ProgramChangeEvent
 113:../libdaisy/src/hid/MidiEvent.h **** {
 114:../libdaisy/src/hid/MidiEvent.h ****     int     channel; /**< & */
 115:../libdaisy/src/hid/MidiEvent.h ****     uint8_t program; /**< & */
 116:../libdaisy/src/hid/MidiEvent.h **** };
 117:../libdaisy/src/hid/MidiEvent.h **** /** Struct containing pressure (aftertouch), for a given channel.
 118:../libdaisy/src/hid/MidiEvent.h **** Can be made from MidiEvent
 119:../libdaisy/src/hid/MidiEvent.h **** */
 120:../libdaisy/src/hid/MidiEvent.h **** struct ChannelPressureEvent
 121:../libdaisy/src/hid/MidiEvent.h **** {
 122:../libdaisy/src/hid/MidiEvent.h ****     int     channel;  /**< & */
 123:../libdaisy/src/hid/MidiEvent.h ****     uint8_t pressure; /**< & */
 124:../libdaisy/src/hid/MidiEvent.h **** };
 125:../libdaisy/src/hid/MidiEvent.h **** /** Struct containing pitch bend value for a given channel.
 126:../libdaisy/src/hid/MidiEvent.h **** Can be made from MidiEvent
 127:../libdaisy/src/hid/MidiEvent.h **** */
 128:../libdaisy/src/hid/MidiEvent.h **** struct PitchBendEvent
 129:../libdaisy/src/hid/MidiEvent.h **** {
 130:../libdaisy/src/hid/MidiEvent.h ****     int     channel; /**< & */
 131:../libdaisy/src/hid/MidiEvent.h ****     int16_t value;   /**< & */
 132:../libdaisy/src/hid/MidiEvent.h **** };
 133:../libdaisy/src/hid/MidiEvent.h **** /** Struct containing channel mode event for a given channel.
 134:../libdaisy/src/hid/MidiEvent.h **** Can be made from MidiEvent
 135:../libdaisy/src/hid/MidiEvent.h **** */
 136:../libdaisy/src/hid/MidiEvent.h **** struct ChannelModeEvent
 137:../libdaisy/src/hid/MidiEvent.h **** {
 138:../libdaisy/src/hid/MidiEvent.h ****     int             channel;    /**< & */
 139:../libdaisy/src/hid/MidiEvent.h ****     ChannelModeType event_type; /**< & */
 140:../libdaisy/src/hid/MidiEvent.h ****     int16_t         value;      /**< & */
 141:../libdaisy/src/hid/MidiEvent.h **** };
 142:../libdaisy/src/hid/MidiEvent.h **** /** Struct containing sysex data.
 143:../libdaisy/src/hid/MidiEvent.h **** Can be made from MidiEvent
 144:../libdaisy/src/hid/MidiEvent.h **** */
 145:../libdaisy/src/hid/MidiEvent.h **** struct SystemExclusiveEvent
 146:../libdaisy/src/hid/MidiEvent.h **** {
 147:../libdaisy/src/hid/MidiEvent.h ****     int     length;
 148:../libdaisy/src/hid/MidiEvent.h ****     uint8_t data[SYSEX_BUFFER_LEN]; /**< & */
 149:../libdaisy/src/hid/MidiEvent.h **** };
 150:../libdaisy/src/hid/MidiEvent.h **** /** Struct containing QuarterFrame data.
 151:../libdaisy/src/hid/MidiEvent.h **** Can be made from MidiEvent
 152:../libdaisy/src/hid/MidiEvent.h **** */
 153:../libdaisy/src/hid/MidiEvent.h **** struct MTCQuarterFrameEvent
 154:../libdaisy/src/hid/MidiEvent.h **** {
 155:../libdaisy/src/hid/MidiEvent.h ****     uint8_t message_type; /**< & */
 156:../libdaisy/src/hid/MidiEvent.h ****     uint8_t value;        /**< & */
 157:../libdaisy/src/hid/MidiEvent.h **** };
 158:../libdaisy/src/hid/MidiEvent.h **** /** Struct containing song position data.
 159:../libdaisy/src/hid/MidiEvent.h **** Can be made from MidiEvent
 160:../libdaisy/src/hid/MidiEvent.h **** */
 161:../libdaisy/src/hid/MidiEvent.h **** struct SongPositionPointerEvent
 162:../libdaisy/src/hid/MidiEvent.h **** {
 163:../libdaisy/src/hid/MidiEvent.h ****     uint16_t position; /**< & */
 164:../libdaisy/src/hid/MidiEvent.h **** };
ARM GAS  /var/folders/g8/1wk0j7gx1n5fw296n3mf_1g40000gn/T//cczcQ1mS.s 			page 26


 165:../libdaisy/src/hid/MidiEvent.h **** /** Struct containing song select data.
 166:../libdaisy/src/hid/MidiEvent.h **** Can be made from MidiEvent
 167:../libdaisy/src/hid/MidiEvent.h **** */
 168:../libdaisy/src/hid/MidiEvent.h **** struct SongSelectEvent
 169:../libdaisy/src/hid/MidiEvent.h **** {
 170:../libdaisy/src/hid/MidiEvent.h ****     uint8_t song; /**< & */
 171:../libdaisy/src/hid/MidiEvent.h **** };
 172:../libdaisy/src/hid/MidiEvent.h **** /** Struct containing sound off data.
 173:../libdaisy/src/hid/MidiEvent.h **** Can be made from MidiEvent
 174:../libdaisy/src/hid/MidiEvent.h **** */
 175:../libdaisy/src/hid/MidiEvent.h **** struct AllSoundOffEvent
 176:../libdaisy/src/hid/MidiEvent.h **** {
 177:../libdaisy/src/hid/MidiEvent.h ****     int channel; /**< & */
 178:../libdaisy/src/hid/MidiEvent.h **** };
 179:../libdaisy/src/hid/MidiEvent.h **** /** Struct containing ResetAllControllersEvent data.
 180:../libdaisy/src/hid/MidiEvent.h **** Can be made from MidiEvent
 181:../libdaisy/src/hid/MidiEvent.h **** */
 182:../libdaisy/src/hid/MidiEvent.h **** struct ResetAllControllersEvent
 183:../libdaisy/src/hid/MidiEvent.h **** {
 184:../libdaisy/src/hid/MidiEvent.h ****     int     channel; /**< & */
 185:../libdaisy/src/hid/MidiEvent.h ****     uint8_t value;   /**< & */
 186:../libdaisy/src/hid/MidiEvent.h **** };
 187:../libdaisy/src/hid/MidiEvent.h **** /** Struct containing LocalControlEvent data.
 188:../libdaisy/src/hid/MidiEvent.h **** Can be made from MidiEvent
 189:../libdaisy/src/hid/MidiEvent.h **** */
 190:../libdaisy/src/hid/MidiEvent.h **** struct LocalControlEvent
 191:../libdaisy/src/hid/MidiEvent.h **** {
 192:../libdaisy/src/hid/MidiEvent.h ****     int  channel;           /**< & */
 193:../libdaisy/src/hid/MidiEvent.h ****     bool local_control_off; /**< & */
 194:../libdaisy/src/hid/MidiEvent.h ****     bool local_control_on;  /**< & */
 195:../libdaisy/src/hid/MidiEvent.h **** };
 196:../libdaisy/src/hid/MidiEvent.h **** /** Struct containing AllNotesOffEvent data.
 197:../libdaisy/src/hid/MidiEvent.h **** Can be made from MidiEvent
 198:../libdaisy/src/hid/MidiEvent.h **** */
 199:../libdaisy/src/hid/MidiEvent.h **** struct AllNotesOffEvent
 200:../libdaisy/src/hid/MidiEvent.h **** {
 201:../libdaisy/src/hid/MidiEvent.h ****     int channel; /**< & */
 202:../libdaisy/src/hid/MidiEvent.h **** };
 203:../libdaisy/src/hid/MidiEvent.h **** /** Struct containing OmniModeOffEvent data. 
 204:../libdaisy/src/hid/MidiEvent.h ****  * Can be made from MidiEvent
 205:../libdaisy/src/hid/MidiEvent.h **** */
 206:../libdaisy/src/hid/MidiEvent.h **** struct OmniModeOffEvent
 207:../libdaisy/src/hid/MidiEvent.h **** {
 208:../libdaisy/src/hid/MidiEvent.h ****     int channel; /**< & */
 209:../libdaisy/src/hid/MidiEvent.h **** };
 210:../libdaisy/src/hid/MidiEvent.h **** /** Struct containing OmniModeOnEvent data.
 211:../libdaisy/src/hid/MidiEvent.h **** Can be made from MidiEvent
 212:../libdaisy/src/hid/MidiEvent.h **** */
 213:../libdaisy/src/hid/MidiEvent.h **** struct OmniModeOnEvent
 214:../libdaisy/src/hid/MidiEvent.h **** {
 215:../libdaisy/src/hid/MidiEvent.h ****     int channel; /**< & */
 216:../libdaisy/src/hid/MidiEvent.h **** };
 217:../libdaisy/src/hid/MidiEvent.h **** /** Struct containing MonoModeOnEvent data.
 218:../libdaisy/src/hid/MidiEvent.h **** Can be made from MidiEvent
 219:../libdaisy/src/hid/MidiEvent.h **** */
 220:../libdaisy/src/hid/MidiEvent.h **** struct MonoModeOnEvent
 221:../libdaisy/src/hid/MidiEvent.h **** {
ARM GAS  /var/folders/g8/1wk0j7gx1n5fw296n3mf_1g40000gn/T//cczcQ1mS.s 			page 27


 222:../libdaisy/src/hid/MidiEvent.h ****     int     channel;      /**< & */
 223:../libdaisy/src/hid/MidiEvent.h ****     uint8_t num_channels; /**< & */
 224:../libdaisy/src/hid/MidiEvent.h **** };
 225:../libdaisy/src/hid/MidiEvent.h **** /** Struct containing PolyModeOnEvent data.
 226:../libdaisy/src/hid/MidiEvent.h **** Can be made from MidiEvent
 227:../libdaisy/src/hid/MidiEvent.h **** */
 228:../libdaisy/src/hid/MidiEvent.h **** struct PolyModeOnEvent
 229:../libdaisy/src/hid/MidiEvent.h **** {
 230:../libdaisy/src/hid/MidiEvent.h ****     int channel; /**< & */
 231:../libdaisy/src/hid/MidiEvent.h **** };
 232:../libdaisy/src/hid/MidiEvent.h **** 
 233:../libdaisy/src/hid/MidiEvent.h **** 
 234:../libdaisy/src/hid/MidiEvent.h **** /** Simple MidiEvent with message type, channel, and data[2] members.
 235:../libdaisy/src/hid/MidiEvent.h **** */
 236:../libdaisy/src/hid/MidiEvent.h **** struct MidiEvent
 237:../libdaisy/src/hid/MidiEvent.h **** {
 238:../libdaisy/src/hid/MidiEvent.h ****     // Newer ish.
 239:../libdaisy/src/hid/MidiEvent.h ****     MidiMessageType    type;                         /**< & */
 240:../libdaisy/src/hid/MidiEvent.h ****     int                channel;                      /**< & */
 241:../libdaisy/src/hid/MidiEvent.h ****     uint8_t            data[2];                      /**< & */
 242:../libdaisy/src/hid/MidiEvent.h ****     uint8_t            sysex_data[SYSEX_BUFFER_LEN]; /**< & */
 243:../libdaisy/src/hid/MidiEvent.h ****     uint8_t            sysex_message_len;
 244:../libdaisy/src/hid/MidiEvent.h ****     SystemCommonType   sc_type;
 245:../libdaisy/src/hid/MidiEvent.h ****     SystemRealTimeType srt_type;
 246:../libdaisy/src/hid/MidiEvent.h ****     ChannelModeType    cm_type;
 247:../libdaisy/src/hid/MidiEvent.h **** 
 248:../libdaisy/src/hid/MidiEvent.h ****     /** Returns the data within the MidiEvent as a NoteOffEvent struct */
 249:../libdaisy/src/hid/MidiEvent.h ****     NoteOffEvent AsNoteOff()
 250:../libdaisy/src/hid/MidiEvent.h ****     {
 251:../libdaisy/src/hid/MidiEvent.h ****         NoteOffEvent m;
 252:../libdaisy/src/hid/MidiEvent.h ****         m.channel  = channel;
 253:../libdaisy/src/hid/MidiEvent.h ****         m.note     = data[0];
 254:../libdaisy/src/hid/MidiEvent.h ****         m.velocity = data[1];
 255:../libdaisy/src/hid/MidiEvent.h ****         return m;
 256:../libdaisy/src/hid/MidiEvent.h ****     }
 257:../libdaisy/src/hid/MidiEvent.h **** 
 258:../libdaisy/src/hid/MidiEvent.h ****     /** Returns the data within the MidiEvent as a NoteOnEvent struct */
 259:../libdaisy/src/hid/MidiEvent.h ****     NoteOnEvent AsNoteOn()
 470              		.loc 11 259 17 view .LVU101
 471              	.LBB411:
 260:../libdaisy/src/hid/MidiEvent.h ****     {
 261:../libdaisy/src/hid/MidiEvent.h ****         NoteOnEvent m;
 472              		.loc 11 261 9 view .LVU102
 262:../libdaisy/src/hid/MidiEvent.h ****         m.channel  = channel;
 473              		.loc 11 262 9 view .LVU103
 263:../libdaisy/src/hid/MidiEvent.h ****         m.note     = data[0];
 474              		.loc 11 263 9 view .LVU104
 264:../libdaisy/src/hid/MidiEvent.h ****         m.velocity = data[1];
 475              		.loc 11 264 9 view .LVU105
 265:../libdaisy/src/hid/MidiEvent.h ****         return m;
 476              		.loc 11 265 9 view .LVU106
 477              		.loc 11 265 9 is_stmt 0 view .LVU107
 478              	.LBE411:
 479              	.LBE410:
 183:pluck.cpp     ****             // Note Off can come in as Note On w/ 0 Velocity
 184:pluck.cpp     ****             if(p.velocity == 0.f)
 480              		.loc 8 184 13 is_stmt 1 view .LVU108
ARM GAS  /var/folders/g8/1wk0j7gx1n5fw296n3mf_1g40000gn/T//cczcQ1mS.s 			page 28


 481              		.loc 8 184 27 is_stmt 0 view .LVU109
 482 0020 F8EEC77A 		vcvt.f32.s32	s15, s14
 483              		.loc 8 184 13 view .LVU110
 484 0024 F5EE407A 		vcmp.f32	s15, #0
 485 0028 F1EE10FA 		vmrs	APSR_nzcv, FPSCR
 486 002c 35D1     		bne	.L22
 185:pluck.cpp     ****             {
 186:pluck.cpp     ****                 voice_handler.OnNoteOff(p.note, p.velocity);
 487              		.loc 8 186 17 is_stmt 1 view .LVU111
 488              		.loc 8 186 40 is_stmt 0 view .LVU112
 489 002e 07EE902A 		vmov	s15, r2	@ int
 490 0032 354B     		ldr	r3, .L44
 491 0034 F8EE677A 		vcvt.f32.u32	s15, s15
 492              	.LVL26:
 493              	.LBB412:
 494              	.LBI412:
 105:pluck.cpp     ****     {
 495              		.loc 8 105 10 is_stmt 1 view .LVU113
 496              	.LBB413:
 107:pluck.cpp     ****         {
 497              		.loc 8 107 29 view .LVU114
 498 0038 03F58451 		add	r1, r3, #4224
 499              	.LVL27:
 500              	.L24:
 107:pluck.cpp     ****         {
 501              		.loc 8 107 29 is_stmt 0 view .LVU115
 502              	.LBE413:
 503              	.LBE412:
 504              	.LBE409:
 505              	.LBE480:
  59:pluck.cpp     ****     inline float GetNote() const { return note_; }
 506              		.loc 8 59 37 is_stmt 1 view .LVU116
  60:pluck.cpp     **** 
 507              		.loc 8 60 36 view .LVU117
 508              	.LBB481:
 509              	.LBB461:
 510              	.LBB422:
 511              	.LBB421:
 107:pluck.cpp     ****         {
 512              		.loc 8 107 9 view .LVU118
 107:pluck.cpp     ****         {
 513              		.loc 8 107 29 view .LVU119
 514              	.LBB414:
 110:pluck.cpp     ****             {
 515              		.loc 8 110 30 is_stmt 0 view .LVU120
 516 003c 93F8AC20 		ldrb	r2, [r3, #172]	@ zero_extendqisi2
 517 0040 4AB1     		cbz	r2, .L23
 518              	.LBB415:
 519              	.LBI415:
  55:pluck.cpp     **** 
 520              		.loc 8 55 10 is_stmt 1 view .LVU121
 521              	.LVL28:
 522              	.LBB416:
  55:pluck.cpp     **** 
 523              		.loc 8 55 24 view .LVU122
 524              	.LBE416:
 525              	.LBE415:
ARM GAS  /var/folders/g8/1wk0j7gx1n5fw296n3mf_1g40000gn/T//cczcQ1mS.s 			page 29


 110:pluck.cpp     ****             {
 526              		.loc 8 110 30 is_stmt 0 view .LVU123
 527 0042 93ED297A 		vldr.32	s14, [r3, #164]
 528              	.LBB419:
 529              	.LBB417:
  55:pluck.cpp     **** 
 530              		.loc 8 55 34 view .LVU124
 531 0046 0022     		movs	r2, #0
 532              	.LBE417:
 533              	.LBE419:
 110:pluck.cpp     ****             {
 534              		.loc 8 110 30 view .LVU125
 535 0048 F4EE477A 		vcmp.f32	s15, s14
 536 004c F1EE10FA 		vmrs	APSR_nzcv, FPSCR
 537              	.LBB420:
 538              	.LBB418:
  55:pluck.cpp     **** 
 539              		.loc 8 55 34 view .LVU126
 540 0050 08BF     		it	eq
 541 0052 83F8AD20 		strbeq	r2, [r3, #173]
 542              	.LVL29:
 543              	.L23:
  55:pluck.cpp     **** 
 544              		.loc 8 55 34 view .LVU127
 545 0056 B033     		adds	r3, r3, #176
 546              	.LVL30:
  55:pluck.cpp     **** 
 547              		.loc 8 55 34 view .LVU128
 548              	.LBE418:
 549              	.LBE420:
 550              	.LBE414:
 107:pluck.cpp     ****         {
 551              		.loc 8 107 29 view .LVU129
 552 0058 8B42     		cmp	r3, r1
 553 005a EFD1     		bne	.L24
 554              	.LVL31:
 555              	.L19:
 107:pluck.cpp     ****         {
 556              		.loc 8 107 29 view .LVU130
 557              	.LBE421:
 558              	.LBE422:
 559              	.LBE461:
 560              	.LBE481:
 187:pluck.cpp     ****             }
 188:pluck.cpp     ****             else
 189:pluck.cpp     ****             {
 190:pluck.cpp     ****                 voice_handler.OnNoteOn(p.note, p.velocity);
 191:pluck.cpp     ****             }
 192:pluck.cpp     ****         }
 193:pluck.cpp     ****         break;
 194:pluck.cpp     ****         case NoteOff:
 195:pluck.cpp     ****         {
 196:pluck.cpp     ****             NoteOnEvent p = m.AsNoteOn();
 197:pluck.cpp     ****             voice_handler.OnNoteOff(p.note, p.velocity);
 198:pluck.cpp     ****         }
 199:pluck.cpp     ****         break;
 200:pluck.cpp     ****         default: break;
ARM GAS  /var/folders/g8/1wk0j7gx1n5fw296n3mf_1g40000gn/T//cczcQ1mS.s 			page 30


 201:pluck.cpp     ****     }
 202:pluck.cpp     **** }
 561              		.loc 8 202 1 view .LVU131
 562 005c BDE83840 		pop	{r3, r4, r5, lr}
 563              		.cfi_remember_state
 564              		.cfi_restore 14
 565              		.cfi_restore 5
 566              		.cfi_restore 4
 567              		.cfi_restore 3
 568              		.cfi_def_cfa_offset 16
 569 0060 04B0     		add	sp, sp, #16
 570              		.cfi_def_cfa_offset 0
 571 0062 7047     		bx	lr
 572              	.LVL32:
 573              	.L20:
 574              		.cfi_restore_state
 194:pluck.cpp     ****         {
 575              		.loc 8 194 9 is_stmt 1 view .LVU132
 195:pluck.cpp     ****             NoteOnEvent p = m.AsNoteOn();
 576              		.loc 8 195 9 view .LVU133
 577              	.LBB482:
 578              	.LBB462:
 196:pluck.cpp     ****             voice_handler.OnNoteOff(p.note, p.velocity);
 579              		.loc 8 196 13 view .LVU134
 580              	.LBB463:
 581              	.LBI463:
 259:../libdaisy/src/hid/MidiEvent.h ****     {
 582              		.loc 11 259 17 view .LVU135
 583              	.LBB464:
 261:../libdaisy/src/hid/MidiEvent.h ****         m.channel  = channel;
 584              		.loc 11 261 9 view .LVU136
 262:../libdaisy/src/hid/MidiEvent.h ****         m.note     = data[0];
 585              		.loc 11 262 9 view .LVU137
 263:../libdaisy/src/hid/MidiEvent.h ****         m.velocity = data[1];
 586              		.loc 11 263 9 view .LVU138
 264:../libdaisy/src/hid/MidiEvent.h ****         return m;
 587              		.loc 11 264 9 view .LVU139
 588              		.loc 11 265 9 view .LVU140
 589              		.loc 11 265 9 is_stmt 0 view .LVU141
 590              	.LBE464:
 591              	.LBE463:
 197:pluck.cpp     ****         }
 592              		.loc 8 197 13 is_stmt 1 view .LVU142
 197:pluck.cpp     ****         }
 593              		.loc 8 197 36 is_stmt 0 view .LVU143
 594 0064 07EE902A 		vmov	s15, r2	@ int
 595 0068 274B     		ldr	r3, .L44
 596 006a F8EE677A 		vcvt.f32.u32	s15, s15
 597              	.LVL33:
 598              	.LBB465:
 599              	.LBI465:
 105:pluck.cpp     ****     {
 600              		.loc 8 105 10 is_stmt 1 view .LVU144
 601              	.LBB466:
 107:pluck.cpp     ****         {
 602              		.loc 8 107 29 view .LVU145
 603 006e 03F58451 		add	r1, r3, #4224
ARM GAS  /var/folders/g8/1wk0j7gx1n5fw296n3mf_1g40000gn/T//cczcQ1mS.s 			page 31


 604              	.LVL34:
 605              	.L29:
 107:pluck.cpp     ****         {
 606              		.loc 8 107 29 is_stmt 0 view .LVU146
 607              	.LBE466:
 608              	.LBE465:
 609              	.LBE462:
 610              	.LBE482:
  59:pluck.cpp     ****     inline float GetNote() const { return note_; }
 611              		.loc 8 59 37 is_stmt 1 view .LVU147
  60:pluck.cpp     **** 
 612              		.loc 8 60 36 view .LVU148
 613              	.LBB483:
 614              	.LBB476:
 615              	.LBB475:
 616              	.LBB474:
 107:pluck.cpp     ****         {
 617              		.loc 8 107 9 view .LVU149
 107:pluck.cpp     ****         {
 618              		.loc 8 107 29 view .LVU150
 619              	.LBB467:
 110:pluck.cpp     ****             {
 620              		.loc 8 110 30 is_stmt 0 view .LVU151
 621 0072 93F8AC20 		ldrb	r2, [r3, #172]	@ zero_extendqisi2
 622 0076 4AB1     		cbz	r2, .L28
 623              	.LBB468:
 624              	.LBI468:
  55:pluck.cpp     **** 
 625              		.loc 8 55 10 is_stmt 1 view .LVU152
 626              	.LVL35:
 627              	.LBB469:
  55:pluck.cpp     **** 
 628              		.loc 8 55 24 view .LVU153
 629              	.LBE469:
 630              	.LBE468:
 110:pluck.cpp     ****             {
 631              		.loc 8 110 30 is_stmt 0 view .LVU154
 632 0078 93ED297A 		vldr.32	s14, [r3, #164]
 633              	.LBB472:
 634              	.LBB470:
  55:pluck.cpp     **** 
 635              		.loc 8 55 34 view .LVU155
 636 007c 0022     		movs	r2, #0
 637              	.LBE470:
 638              	.LBE472:
 110:pluck.cpp     ****             {
 639              		.loc 8 110 30 view .LVU156
 640 007e F4EE477A 		vcmp.f32	s15, s14
 641 0082 F1EE10FA 		vmrs	APSR_nzcv, FPSCR
 642              	.LBB473:
 643              	.LBB471:
  55:pluck.cpp     **** 
 644              		.loc 8 55 34 view .LVU157
 645 0086 08BF     		it	eq
 646 0088 83F8AD20 		strbeq	r2, [r3, #173]
 647              	.LVL36:
 648              	.L28:
ARM GAS  /var/folders/g8/1wk0j7gx1n5fw296n3mf_1g40000gn/T//cczcQ1mS.s 			page 32


  55:pluck.cpp     **** 
 649              		.loc 8 55 34 view .LVU158
 650 008c B033     		adds	r3, r3, #176
 651              	.LVL37:
  55:pluck.cpp     **** 
 652              		.loc 8 55 34 view .LVU159
 653              	.LBE471:
 654              	.LBE473:
 655              	.LBE467:
 107:pluck.cpp     ****         {
 656              		.loc 8 107 29 view .LVU160
 657 008e 9942     		cmp	r1, r3
 658 0090 EFD1     		bne	.L29
 659              	.LBE474:
 660              	.LBE475:
 661              	.LBE476:
 662              	.LBE483:
 663              		.loc 8 202 1 view .LVU161
 664 0092 BDE83840 		pop	{r3, r4, r5, lr}
 665              		.cfi_remember_state
 666              		.cfi_restore 14
 667              		.cfi_restore 5
 668              		.cfi_restore 4
 669              		.cfi_restore 3
 670              		.cfi_def_cfa_offset 16
 671              	.LVL38:
 672              		.loc 8 202 1 view .LVU162
 673 0096 04B0     		add	sp, sp, #16
 674              		.cfi_def_cfa_offset 0
 675 0098 7047     		bx	lr
 676              	.LVL39:
 677              	.L22:
 678              		.cfi_restore_state
 679              	.LBB484:
 680              	.LBB477:
 190:pluck.cpp     ****             }
 681              		.loc 8 190 17 is_stmt 1 view .LVU163
 682              	.LBB423:
 683              	.LBI423:
  97:pluck.cpp     ****     {
 684              		.loc 8 97 10 view .LVU164
 685              	.LBB424:
 686              	.LBB425:
 687              	.LBI425:
 136:pluck.cpp     ****     {
 688              		.loc 8 136 12 view .LVU165
 689              	.LBB426:
 690              	.LBB427:
 139:pluck.cpp     ****         {
 691              		.loc 8 139 29 view .LVU166
 692 009a 1B48     		ldr	r0, .L44
 139:pluck.cpp     ****         {
 693              		.loc 8 139 20 is_stmt 0 view .LVU167
 694 009c 0023     		movs	r3, #0
 695 009e 0446     		mov	r4, r0
 696 00a0 03E0     		b	.L27
 697              	.LVL40:
ARM GAS  /var/folders/g8/1wk0j7gx1n5fw296n3mf_1g40000gn/T//cczcQ1mS.s 			page 33


 698              	.L43:
 139:pluck.cpp     ****         {
 699              		.loc 8 139 9 view .LVU168
 700 00a2 0133     		adds	r3, r3, #1
 701              	.LVL41:
 139:pluck.cpp     ****         {
 702              		.loc 8 139 29 is_stmt 1 view .LVU169
 703 00a4 B034     		adds	r4, r4, #176
 704              	.LVL42:
 139:pluck.cpp     ****         {
 705              		.loc 8 139 29 is_stmt 0 view .LVU170
 706 00a6 182B     		cmp	r3, #24
 707 00a8 D8D0     		beq	.L19
 708              	.LVL43:
 709              	.L27:
 139:pluck.cpp     ****         {
 710              		.loc 8 139 29 view .LVU171
 711              	.LBE427:
 712              	.LBE426:
 713              	.LBE425:
 714              	.LBE424:
 715              	.LBE423:
 716              	.LBE477:
 717              	.LBE484:
  59:pluck.cpp     ****     inline float GetNote() const { return note_; }
 718              		.loc 8 59 37 is_stmt 1 view .LVU172
 719              	.LBB485:
 720              	.LBB478:
 721              	.LBB457:
 722              	.LBB453:
 723              	.LBB430:
 724              	.LBB429:
 725              	.LBB428:
 139:pluck.cpp     ****         {
 726              		.loc 8 139 9 view .LVU173
 141:pluck.cpp     ****             {
 727              		.loc 8 141 13 is_stmt 0 view .LVU174
 728 00aa 94F8AC10 		ldrb	r1, [r4, #172]	@ zero_extendqisi2
 729 00ae 0029     		cmp	r1, #0
 730 00b0 F7D1     		bne	.L43
 731              	.LBE428:
 732              	.LBE429:
 733              	.LBE430:
 734              	.LBE453:
 735              	.LBE457:
 190:pluck.cpp     ****             }
 736              		.loc 8 190 39 view .LVU175
 737 00b2 07EE902A 		vmov	s15, r2	@ int
 738              	.LBB458:
 739              	.LBB454:
 740              	.LBB431:
 741              	.LBB432:
  48:pluck.cpp     ****         velocity_ = velocity;
 742              		.loc 8 48 19 view .LVU176
 743 00b6 B025     		movs	r5, #176
 744              	.LBB433:
 745              	.LBB434:
ARM GAS  /var/folders/g8/1wk0j7gx1n5fw296n3mf_1g40000gn/T//cczcQ1mS.s 			page 34


 746              		.file 12 "../DaisySP/Source/Utility/dsp.h"
   1:../DaisySP/Source/Utility/dsp.h **** /** Helpful defines, functions, and other utilities for use in/with daisysp modules.
   2:../DaisySP/Source/Utility/dsp.h **** */
   3:../DaisySP/Source/Utility/dsp.h **** #pragma once
   4:../DaisySP/Source/Utility/dsp.h **** #ifndef DSY_CORE_DSP
   5:../DaisySP/Source/Utility/dsp.h **** #define DSY_CORE_DSP
   6:../DaisySP/Source/Utility/dsp.h **** #include <cassert>
   7:../DaisySP/Source/Utility/dsp.h **** #include <cstdint>
   8:../DaisySP/Source/Utility/dsp.h **** #include <random>
   9:../DaisySP/Source/Utility/dsp.h **** #include <cmath>
  10:../DaisySP/Source/Utility/dsp.h **** 
  11:../DaisySP/Source/Utility/dsp.h **** /** PIs
  12:../DaisySP/Source/Utility/dsp.h **** */
  13:../DaisySP/Source/Utility/dsp.h **** #define PI_F 3.1415927410125732421875f
  14:../DaisySP/Source/Utility/dsp.h **** #define TWOPI_F (2.0f * PI_F)
  15:../DaisySP/Source/Utility/dsp.h **** #define HALFPI_F (PI_F * 0.5f)
  16:../DaisySP/Source/Utility/dsp.h **** #define DSY_MIN(in, mn) (in < mn ? in : mn)
  17:../DaisySP/Source/Utility/dsp.h **** #define DSY_MAX(in, mx) (in > mx ? in : mx)
  18:../DaisySP/Source/Utility/dsp.h **** #define DSY_CLAMP(in, mn, mx) (DSY_MIN(DSY_MAX(in, mn), mx))
  19:../DaisySP/Source/Utility/dsp.h **** #define DSY_COUNTOF(_arr) (sizeof(_arr) / sizeof(_arr[0]))
  20:../DaisySP/Source/Utility/dsp.h **** 
  21:../DaisySP/Source/Utility/dsp.h **** namespace daisysp
  22:../DaisySP/Source/Utility/dsp.h **** {
  23:../DaisySP/Source/Utility/dsp.h **** //Avoids division for random floats. e.g. rand() * kRandFrac
  24:../DaisySP/Source/Utility/dsp.h **** static constexpr float kRandFrac = 1.f / (float)RAND_MAX;
  25:../DaisySP/Source/Utility/dsp.h **** 
  26:../DaisySP/Source/Utility/dsp.h **** //Convert from semitones to other units. e.g. 2 ^ (kOneTwelfth * x)
  27:../DaisySP/Source/Utility/dsp.h **** static constexpr float kOneTwelfth = 1.f / 12.f;
  28:../DaisySP/Source/Utility/dsp.h **** 
  29:../DaisySP/Source/Utility/dsp.h **** /** efficient floating point min/max
  30:../DaisySP/Source/Utility/dsp.h **** c/o stephen mccaul
  31:../DaisySP/Source/Utility/dsp.h **** */
  32:../DaisySP/Source/Utility/dsp.h **** inline float fmax(float a, float b)
  33:../DaisySP/Source/Utility/dsp.h **** {
  34:../DaisySP/Source/Utility/dsp.h ****     float r;
  35:../DaisySP/Source/Utility/dsp.h **** #ifdef __arm__
  36:../DaisySP/Source/Utility/dsp.h ****     asm("vmaxnm.f32 %[d], %[n], %[m]" : [d] "=t"(r) : [n] "t"(a), [m] "t"(b) :);
  37:../DaisySP/Source/Utility/dsp.h **** #else
  38:../DaisySP/Source/Utility/dsp.h ****     r = (a > b) ? a : b;
  39:../DaisySP/Source/Utility/dsp.h **** #endif // __arm__
  40:../DaisySP/Source/Utility/dsp.h ****     return r;
  41:../DaisySP/Source/Utility/dsp.h **** }
  42:../DaisySP/Source/Utility/dsp.h **** 
  43:../DaisySP/Source/Utility/dsp.h **** inline float fmin(float a, float b)
  44:../DaisySP/Source/Utility/dsp.h **** {
  45:../DaisySP/Source/Utility/dsp.h ****     float r;
  46:../DaisySP/Source/Utility/dsp.h **** #ifdef __arm__
  47:../DaisySP/Source/Utility/dsp.h ****     asm("vminnm.f32 %[d], %[n], %[m]" : [d] "=t"(r) : [n] "t"(a), [m] "t"(b) :);
  48:../DaisySP/Source/Utility/dsp.h **** #else
  49:../DaisySP/Source/Utility/dsp.h ****     r = (a < b) ? a : b;
  50:../DaisySP/Source/Utility/dsp.h **** #endif // __arm__
  51:../DaisySP/Source/Utility/dsp.h ****     return r;
  52:../DaisySP/Source/Utility/dsp.h **** }
  53:../DaisySP/Source/Utility/dsp.h **** 
  54:../DaisySP/Source/Utility/dsp.h **** /** quick fp clamp
  55:../DaisySP/Source/Utility/dsp.h **** */
  56:../DaisySP/Source/Utility/dsp.h **** inline float fclamp(float in, float min, float max)
ARM GAS  /var/folders/g8/1wk0j7gx1n5fw296n3mf_1g40000gn/T//cczcQ1mS.s 			page 35


  57:../DaisySP/Source/Utility/dsp.h **** {
  58:../DaisySP/Source/Utility/dsp.h ****     return fmin(fmax(in, min), max);
  59:../DaisySP/Source/Utility/dsp.h **** }
  60:../DaisySP/Source/Utility/dsp.h **** 
  61:../DaisySP/Source/Utility/dsp.h **** /** From Musicdsp.org "Fast power and root estimates for 32bit floats)
  62:../DaisySP/Source/Utility/dsp.h **** Original code by Stefan Stenzel
  63:../DaisySP/Source/Utility/dsp.h **** These are approximations
  64:../DaisySP/Source/Utility/dsp.h **** */
  65:../DaisySP/Source/Utility/dsp.h **** inline float fastpower(float f, int n)
  66:../DaisySP/Source/Utility/dsp.h **** {
  67:../DaisySP/Source/Utility/dsp.h ****     long *lp, l;
  68:../DaisySP/Source/Utility/dsp.h ****     lp = (long *)(&f);
  69:../DaisySP/Source/Utility/dsp.h ****     l  = *lp;
  70:../DaisySP/Source/Utility/dsp.h ****     l -= 0x3F800000;
  71:../DaisySP/Source/Utility/dsp.h ****     l <<= (n - 1);
  72:../DaisySP/Source/Utility/dsp.h ****     l += 0x3F800000;
  73:../DaisySP/Source/Utility/dsp.h ****     *lp = l;
  74:../DaisySP/Source/Utility/dsp.h ****     return f;
  75:../DaisySP/Source/Utility/dsp.h **** }
  76:../DaisySP/Source/Utility/dsp.h **** 
  77:../DaisySP/Source/Utility/dsp.h **** inline float fastroot(float f, int n)
  78:../DaisySP/Source/Utility/dsp.h **** {
  79:../DaisySP/Source/Utility/dsp.h ****     long *lp, l;
  80:../DaisySP/Source/Utility/dsp.h ****     lp = (long *)(&f);
  81:../DaisySP/Source/Utility/dsp.h ****     l  = *lp;
  82:../DaisySP/Source/Utility/dsp.h ****     l -= 0x3F800000;
  83:../DaisySP/Source/Utility/dsp.h ****     l >>= (n = 1);
  84:../DaisySP/Source/Utility/dsp.h ****     l += 0x3F800000;
  85:../DaisySP/Source/Utility/dsp.h ****     *lp = l;
  86:../DaisySP/Source/Utility/dsp.h ****     return f;
  87:../DaisySP/Source/Utility/dsp.h **** }
  88:../DaisySP/Source/Utility/dsp.h **** 
  89:../DaisySP/Source/Utility/dsp.h **** /** From http://openaudio.blogspot.com/2017/02/faster-log10-and-pow.html
  90:../DaisySP/Source/Utility/dsp.h **** No approximation, pow10f(x) gives a 90% speed increase over powf(10.f, x)
  91:../DaisySP/Source/Utility/dsp.h **** */
  92:../DaisySP/Source/Utility/dsp.h **** inline float pow10f(float f)
  93:../DaisySP/Source/Utility/dsp.h **** {
  94:../DaisySP/Source/Utility/dsp.h ****     return expf(2.302585092994046f * f);
  95:../DaisySP/Source/Utility/dsp.h **** }
  96:../DaisySP/Source/Utility/dsp.h **** 
  97:../DaisySP/Source/Utility/dsp.h **** /* Original code for fastlog2f by Dr. Paul Beckmann from the ARM community forum, adapted from the 
  98:../DaisySP/Source/Utility/dsp.h **** About 25% performance increase over std::log10f
  99:../DaisySP/Source/Utility/dsp.h **** */
 100:../DaisySP/Source/Utility/dsp.h **** inline float fastlog2f(float f)
 101:../DaisySP/Source/Utility/dsp.h **** {
 102:../DaisySP/Source/Utility/dsp.h ****     float frac;
 103:../DaisySP/Source/Utility/dsp.h ****     int   exp;
 104:../DaisySP/Source/Utility/dsp.h ****     frac = frexpf(fabsf(f), &exp);
 105:../DaisySP/Source/Utility/dsp.h ****     f    = 1.23149591368684f;
 106:../DaisySP/Source/Utility/dsp.h ****     f *= frac;
 107:../DaisySP/Source/Utility/dsp.h ****     f += -4.11852516267426f;
 108:../DaisySP/Source/Utility/dsp.h ****     f *= frac;
 109:../DaisySP/Source/Utility/dsp.h ****     f += 6.02197014179219f;
 110:../DaisySP/Source/Utility/dsp.h ****     f *= frac;
 111:../DaisySP/Source/Utility/dsp.h ****     f += -3.13396450166353f;
 112:../DaisySP/Source/Utility/dsp.h ****     f += exp;
 113:../DaisySP/Source/Utility/dsp.h ****     return (f);
ARM GAS  /var/folders/g8/1wk0j7gx1n5fw296n3mf_1g40000gn/T//cczcQ1mS.s 			page 36


 114:../DaisySP/Source/Utility/dsp.h **** }
 115:../DaisySP/Source/Utility/dsp.h **** 
 116:../DaisySP/Source/Utility/dsp.h **** inline float fastlog10f(float f)
 117:../DaisySP/Source/Utility/dsp.h **** {
 118:../DaisySP/Source/Utility/dsp.h ****     return fastlog2f(f) * 0.3010299956639812f;
 119:../DaisySP/Source/Utility/dsp.h **** }
 120:../DaisySP/Source/Utility/dsp.h **** 
 121:../DaisySP/Source/Utility/dsp.h **** /** Midi to frequency helper
 122:../DaisySP/Source/Utility/dsp.h **** */
 123:../DaisySP/Source/Utility/dsp.h **** inline float mtof(float m)
 124:../DaisySP/Source/Utility/dsp.h **** {
 125:../DaisySP/Source/Utility/dsp.h ****     return powf(2, (m - 69.0f) / 12.0f) * 440.0f;
 747              		.loc 12 125 23 view .LVU177
 748 00b8 DFED146A 		vldr.32	s13, .L44+4
 749              	.LBE434:
 750              	.LBE433:
 751              	.LBE432:
 752              	.LBE431:
 753              	.LBE454:
 754              	.LBE458:
 190:pluck.cpp     ****             }
 755              		.loc 8 190 39 view .LVU178
 756 00bc B8EE477A 		vcvt.f32.u32	s14, s14
 757 00c0 F8EE677A 		vcvt.f32.u32	s15, s15
 758              	.LVL44:
 759              	.LBB459:
 760              	.LBB455:
 761              	.LBB451:
 762              	.LBI431:
  46:pluck.cpp     ****     {
 763              		.loc 8 46 10 is_stmt 1 view .LVU179
 764              	.LBB449:
  48:pluck.cpp     ****         velocity_ = velocity;
 765              		.loc 8 48 9 view .LVU180
  48:pluck.cpp     ****         velocity_ = velocity;
 766              		.loc 8 48 19 is_stmt 0 view .LVU181
 767 00c4 05FB03F5 		mul	r5, r5, r3
 768              	.LBB439:
 769              	.LBB435:
 770              		.loc 12 125 16 view .LVU182
 771 00c8 F2EE080A 		vmov.f32	s1, #1.2e+1
 772              	.LBE435:
 773              	.LBE439:
  48:pluck.cpp     ****         velocity_ = velocity;
 774              		.loc 8 48 19 view .LVU183
 775 00cc 2844     		add	r0, r0, r5
 776              	.LBB440:
 777              	.LBB436:
 778              		.loc 12 125 16 view .LVU184
 779 00ce B0EE000A 		vmov.f32	s0, #2.0e+0
 780              		.loc 12 125 23 view .LVU185
 781 00d2 77EEE66A 		vsub.f32	s13, s15, s13
 782              	.LBE436:
 783              	.LBE440:
 784              	.LBE449:
 785              	.LBE451:
 786              	.LBE455:
ARM GAS  /var/folders/g8/1wk0j7gx1n5fw296n3mf_1g40000gn/T//cczcQ1mS.s 			page 37


 787              	.LBE459:
 190:pluck.cpp     ****             }
 788              		.loc 8 190 39 view .LVU186
 789 00d6 80ED2A7A 		vstr.32	s14, [r0, #168]
 790              	.LBB460:
 791              	.LBB456:
 792              	.LBB452:
 793              	.LBB450:
  48:pluck.cpp     ****         velocity_ = velocity;
 794              		.loc 8 48 19 view .LVU187
 795 00da C0ED297A 		vstr.32	s15, [r0, #164]
  49:pluck.cpp     ****         osc_.SetFreq(mtof(note_));
 796              		.loc 8 49 9 is_stmt 1 view .LVU188
  50:pluck.cpp     ****         active_   = true;
 797              		.loc 8 50 9 view .LVU189
 798              	.LVL45:
 799              	.LBB441:
 800              	.LBI433:
 123:../DaisySP/Source/Utility/dsp.h **** {
 801              		.loc 12 123 14 view .LVU190
 802              	.LBB437:
 803              		.loc 12 125 5 view .LVU191
 804              		.loc 12 125 16 is_stmt 0 view .LVU192
 805 00de C6EEA00A 		vdiv.f32	s1, s13, s1
 806 00e2 FFF7FEFF 		bl	powf
 807              	.LVL46:
 808              		.loc 12 125 43 view .LVU193
 809 00e6 DFED0A7A 		vldr.32	s15, .L44+8
 810              	.LBE437:
 811              	.LBE441:
 812              	.LBB442:
 813              	.LBB443:
 814              		.file 13 "../DaisySP/Source/Synthesis/oscillator.h"
   1:../DaisySP/Source/Synthesis/oscillator.h **** #pragma once
   2:../DaisySP/Source/Synthesis/oscillator.h **** #ifndef DSY_OSCILLATOR_H
   3:../DaisySP/Source/Synthesis/oscillator.h **** #define DSY_OSCILLATOR_H
   4:../DaisySP/Source/Synthesis/oscillator.h **** #include <stdint.h>
   5:../DaisySP/Source/Synthesis/oscillator.h **** #include "Utility/dsp.h"
   6:../DaisySP/Source/Synthesis/oscillator.h **** #ifdef __cplusplus
   7:../DaisySP/Source/Synthesis/oscillator.h **** 
   8:../DaisySP/Source/Synthesis/oscillator.h **** namespace daisysp
   9:../DaisySP/Source/Synthesis/oscillator.h **** {
  10:../DaisySP/Source/Synthesis/oscillator.h **** /** Synthesis of several waveforms, including polyBLEP bandlimited waveforms.
  11:../DaisySP/Source/Synthesis/oscillator.h **** */
  12:../DaisySP/Source/Synthesis/oscillator.h **** class Oscillator
  13:../DaisySP/Source/Synthesis/oscillator.h **** {
  14:../DaisySP/Source/Synthesis/oscillator.h ****   public:
  15:../DaisySP/Source/Synthesis/oscillator.h ****     Oscillator() {}
  16:../DaisySP/Source/Synthesis/oscillator.h ****     ~Oscillator() {}
  17:../DaisySP/Source/Synthesis/oscillator.h ****     /** Choices for output waveforms, POLYBLEP are appropriately labeled. Others are naive forms.
  18:../DaisySP/Source/Synthesis/oscillator.h ****     */
  19:../DaisySP/Source/Synthesis/oscillator.h ****     enum
  20:../DaisySP/Source/Synthesis/oscillator.h ****     {
  21:../DaisySP/Source/Synthesis/oscillator.h ****         WAVE_SIN,
  22:../DaisySP/Source/Synthesis/oscillator.h ****         WAVE_TRI,
  23:../DaisySP/Source/Synthesis/oscillator.h ****         WAVE_SAW,
  24:../DaisySP/Source/Synthesis/oscillator.h ****         WAVE_RAMP,
ARM GAS  /var/folders/g8/1wk0j7gx1n5fw296n3mf_1g40000gn/T//cczcQ1mS.s 			page 38


  25:../DaisySP/Source/Synthesis/oscillator.h ****         WAVE_SQUARE,
  26:../DaisySP/Source/Synthesis/oscillator.h ****         WAVE_POLYBLEP_TRI,
  27:../DaisySP/Source/Synthesis/oscillator.h ****         WAVE_POLYBLEP_SAW,
  28:../DaisySP/Source/Synthesis/oscillator.h ****         WAVE_POLYBLEP_SQUARE,
  29:../DaisySP/Source/Synthesis/oscillator.h ****         WAVE_LAST,
  30:../DaisySP/Source/Synthesis/oscillator.h ****     };
  31:../DaisySP/Source/Synthesis/oscillator.h **** 
  32:../DaisySP/Source/Synthesis/oscillator.h **** 
  33:../DaisySP/Source/Synthesis/oscillator.h ****     /** Initializes the Oscillator
  34:../DaisySP/Source/Synthesis/oscillator.h **** 
  35:../DaisySP/Source/Synthesis/oscillator.h ****         \param sample_rate - sample rate of the audio engine being run, and the frequency that the 
  36:../DaisySP/Source/Synthesis/oscillator.h **** 
  37:../DaisySP/Source/Synthesis/oscillator.h ****         Defaults:
  38:../DaisySP/Source/Synthesis/oscillator.h ****         - freq_ = 100 Hz
  39:../DaisySP/Source/Synthesis/oscillator.h ****         - amp_ = 0.5
  40:../DaisySP/Source/Synthesis/oscillator.h ****         - waveform_ = sine wave.
  41:../DaisySP/Source/Synthesis/oscillator.h ****     */
  42:../DaisySP/Source/Synthesis/oscillator.h ****     void Init(float sample_rate)
  43:../DaisySP/Source/Synthesis/oscillator.h ****     {
  44:../DaisySP/Source/Synthesis/oscillator.h ****         sr_        = sample_rate;
  45:../DaisySP/Source/Synthesis/oscillator.h ****         sr_recip_  = 1.0f / sample_rate;
  46:../DaisySP/Source/Synthesis/oscillator.h ****         freq_      = 100.0f;
  47:../DaisySP/Source/Synthesis/oscillator.h ****         amp_       = 0.5f;
  48:../DaisySP/Source/Synthesis/oscillator.h ****         phase_     = 0.0f;
  49:../DaisySP/Source/Synthesis/oscillator.h ****         phase_inc_ = CalcPhaseInc(freq_);
  50:../DaisySP/Source/Synthesis/oscillator.h ****         waveform_  = WAVE_SIN;
  51:../DaisySP/Source/Synthesis/oscillator.h ****         eoc_       = true;
  52:../DaisySP/Source/Synthesis/oscillator.h ****         eor_       = true;
  53:../DaisySP/Source/Synthesis/oscillator.h ****     }
  54:../DaisySP/Source/Synthesis/oscillator.h **** 
  55:../DaisySP/Source/Synthesis/oscillator.h **** 
  56:../DaisySP/Source/Synthesis/oscillator.h ****     /** Changes the frequency of the Oscillator, and recalculates phase increment.
  57:../DaisySP/Source/Synthesis/oscillator.h ****     */
  58:../DaisySP/Source/Synthesis/oscillator.h ****     inline void SetFreq(const float f)
  59:../DaisySP/Source/Synthesis/oscillator.h ****     {
  60:../DaisySP/Source/Synthesis/oscillator.h ****         freq_      = f;
  61:../DaisySP/Source/Synthesis/oscillator.h ****         phase_inc_ = CalcPhaseInc(f);
 815              		.loc 13 61 34 view .LVU194
 816 00ea 2046     		mov	r0, r4
 817              	.LBE443:
 818              	.LBE442:
 819              	.LBB446:
 820              	.LBB438:
 821              		.loc 12 125 43 view .LVU195
 822 00ec 20EE270A 		vmul.f32	s0, s0, s15
 823              	.LVL47:
 824              		.loc 12 125 43 view .LVU196
 825              	.LBE438:
 826              	.LBE446:
 827              	.LBB447:
 828              	.LBI442:
  58:../DaisySP/Source/Synthesis/oscillator.h ****     {
 829              		.loc 13 58 17 is_stmt 1 view .LVU197
 830              	.LBB444:
  60:../DaisySP/Source/Synthesis/oscillator.h ****         phase_inc_ = CalcPhaseInc(f);
 831              		.loc 13 60 9 view .LVU198
  60:../DaisySP/Source/Synthesis/oscillator.h ****         phase_inc_ = CalcPhaseInc(f);
ARM GAS  /var/folders/g8/1wk0j7gx1n5fw296n3mf_1g40000gn/T//cczcQ1mS.s 			page 39


 832              		.loc 13 60 20 is_stmt 0 view .LVU199
 833 00f0 84ED020A 		vstr.32	s0, [r4, #8]
 834              		.loc 13 61 9 is_stmt 1 view .LVU200
 835              		.loc 13 61 34 is_stmt 0 view .LVU201
 836 00f4 FFF7FEFF 		bl	_ZN7daisysp10Oscillator12CalcPhaseIncEf
 837              	.LVL48:
 838              		.loc 13 61 34 view .LVU202
 839              	.LBE444:
 840              	.LBE447:
  51:pluck.cpp     ****         env_gate_ = true;
 841              		.loc 8 51 19 view .LVU203
 842 00f8 064B     		ldr	r3, .L44+12
 843 00fa 40F20112 		movw	r2, #257
 844              	.LBB448:
 845              	.LBB445:
 846              		.loc 13 61 20 view .LVU204
 847 00fe 84ED060A 		vstr.32	s0, [r4, #24]
 848              	.LVL49:
 849              		.loc 13 61 20 view .LVU205
 850              	.LBE445:
 851              	.LBE448:
  51:pluck.cpp     ****         env_gate_ = true;
 852              		.loc 8 51 9 is_stmt 1 view .LVU206
  52:pluck.cpp     ****     }
 853              		.loc 8 52 9 view .LVU207
  51:pluck.cpp     ****         env_gate_ = true;
 854              		.loc 8 51 19 is_stmt 0 view .LVU208
 855 0102 2B44     		add	r3, r3, r5
 856 0104 9A80     		strh	r2, [r3, #4]	@ movhi
  53:pluck.cpp     **** 
 857              		.loc 8 53 5 view .LVU209
 858 0106 A9E7     		b	.L19
 859              	.L45:
 860              		.align	2
 861              	.L44:
 862 0108 00000000 		.word	_ZL13voice_handler
 863 010c 00008A42 		.word	1116340224
 864 0110 0000DC43 		.word	1138491392
 865 0114 A8000000 		.word	_ZL13voice_handler+168
 866              	.LBE450:
 867              	.LBE452:
 868              	.LBE456:
 869              	.LBE460:
 870              	.LBE478:
 871              	.LBE485:
 872              		.cfi_endproc
 873              	.LFE4418:
 875              		.section	.text.startup.main,"ax",%progbits
 876              		.align	1
 877              		.p2align 2,,3
 878              		.global	main
 879              		.syntax unified
 880              		.thumb
 881              		.thumb_func
 882              		.fpu fpv5-d16
 884              	main:
 885              	.LFB4419:
ARM GAS  /var/folders/g8/1wk0j7gx1n5fw296n3mf_1g40000gn/T//cczcQ1mS.s 			page 40


 203:pluck.cpp     **** 
 204:pluck.cpp     **** int main(void)
 205:pluck.cpp     **** {
 886              		.loc 8 205 1 is_stmt 1 view -0
 887              		.cfi_startproc
 888              		@ args = 0, pretend = 0, frame = 440
 889              		@ frame_needed = 0, uses_anonymous_args = 0
 206:pluck.cpp     ****     // initialize seed hardware and daisysp modules
 207:pluck.cpp     ****     float sample_rate;
 890              		.loc 8 207 5 view .LVU211
 208:pluck.cpp     ****     seed_handle.Configure();
 891              		.loc 8 208 5 view .LVU212
 205:pluck.cpp     ****     // initialize seed hardware and daisysp modules
 892              		.loc 8 205 1 is_stmt 0 view .LVU213
 893 0000 2DE9F04F 		push	{r4, r5, r6, r7, r8, r9, r10, fp, lr}
 894              		.cfi_def_cfa_offset 36
 895              		.cfi_offset 4, -36
 896              		.cfi_offset 5, -32
 897              		.cfi_offset 6, -28
 898              		.cfi_offset 7, -24
 899              		.cfi_offset 8, -20
 900              		.cfi_offset 9, -16
 901              		.cfi_offset 10, -12
 902              		.cfi_offset 11, -8
 903              		.cfi_offset 14, -4
 904              		.loc 8 208 26 view .LVU214
 905 0004 B648     		ldr	r0, .L114
 906              	.LBB575:
 907              	.LBB576:
 908              	.LBB577:
 909              	.LBB578:
  50:../libdaisy/src/hid/midi.h ****         uart_config.wordlength = UartHandler::Config::WordLength::BITS_8;
 910              		.loc 7 50 32 view .LVU215
 911 0006 0225     		movs	r5, #2
 912              	.LBE578:
 913              	.LBE577:
  86:../libdaisy/src/hid/midi.h **** 
  87:../libdaisy/src/hid/midi.h ****     struct Config
  88:../libdaisy/src/hid/midi.h ****     {
  89:../libdaisy/src/hid/midi.h ****         typename Transport::Config transport_config;
  90:../libdaisy/src/hid/midi.h ****     };
  91:../libdaisy/src/hid/midi.h **** 
  92:../libdaisy/src/hid/midi.h ****     /** Initializes the MidiHandler 
  93:../libdaisy/src/hid/midi.h ****      *  \param config Configuration structure used to define specifics to the MIDI Handler.
  94:../libdaisy/src/hid/midi.h ****      */
  95:../libdaisy/src/hid/midi.h ****     void Init(Config config)
  96:../libdaisy/src/hid/midi.h ****     {
  97:../libdaisy/src/hid/midi.h ****         config_ = config;
 914              		.loc 7 97 9 view .LVU216
 915 0008 DFF82483 		ldr	r8, .L114+80
 916              	.LBE576:
 917              	.LBE575:
 205:pluck.cpp     ****     // initialize seed hardware and daisysp modules
 918              		.loc 8 205 1 view .LVU217
 919 000c 2DED028B 		vpush.64	{d8}
 920              		.cfi_def_cfa_offset 44
 921              		.cfi_offset 80, -44
ARM GAS  /var/folders/g8/1wk0j7gx1n5fw296n3mf_1g40000gn/T//cczcQ1mS.s 			page 41


 922              		.cfi_offset 81, -40
 923 0010 ADF50F7D 		sub	sp, sp, #572
 924              		.cfi_def_cfa_offset 616
 925              		.loc 8 208 26 view .LVU218
 926 0014 FFF7FEFF 		bl	_ZN5daisy9DaisySeed9ConfigureEv
 927              	.LVL50:
 209:pluck.cpp     ****     seed_handle.Init();
 928              		.loc 8 209 5 is_stmt 1 view .LVU219
 929              		.loc 8 209 21 is_stmt 0 view .LVU220
 930 0018 0021     		movs	r1, #0
 931 001a B148     		ldr	r0, .L114
 932              	.LBB609:
 933              	.LBB604:
 934              		.loc 7 97 9 view .LVU221
 935 001c 0C46     		mov	r4, r1
 936              	.LBE604:
 937              	.LBE609:
 938              		.loc 8 209 21 view .LVU222
 939 001e FFF7FEFF 		bl	_ZN5daisy9DaisySeed4InitEb
 940              	.LVL51:
 210:pluck.cpp     ****     sample_rate = seed_handle.AudioSampleRate();
 941              		.loc 8 210 5 is_stmt 1 view .LVU223
 942              		.loc 8 210 46 is_stmt 0 view .LVU224
 943 0022 AF48     		ldr	r0, .L114
 944 0024 FFF7FEFF 		bl	_ZN5daisy9DaisySeed15AudioSampleRateEv
 945              	.LVL52:
 946              	.LBB610:
 947              	.LBB605:
 948              		.loc 7 97 9 view .LVU225
 949 0028 49F2AC02 		movw	r2, #37036
 950 002c AD48     		ldr	r0, .L114+4
 951 002e 49F2A803 		movw	r3, #37032
 952              	.LBE605:
 953              	.LBE610:
 954              		.loc 8 210 46 view .LVU226
 955 0032 B0EE408A 		vmov.f32	s16, s0
 956              	.LVL53:
 211:pluck.cpp     ****     MidiUartHandler::Config midi_config;
 957              		.loc 8 211 5 is_stmt 1 view .LVU227
 958              	.LBB611:
 959              	.LBI611:
  87:../libdaisy/src/hid/midi.h ****     {
 960              		.loc 7 87 12 view .LVU228
 961              	.LBB612:
 962              	.LBI612:
  34:../libdaisy/src/hid/midi.h ****         {
 963              		.loc 7 34 9 view .LVU229
  34:../libdaisy/src/hid/midi.h ****         {
 964              		.loc 7 34 9 is_stmt 0 view .LVU230
 965              	.LBE612:
 966              	.LBE611:
  36:../libdaisy/src/hid/midi.h ****             rx     = {DSY_GPIOB, 7};
 967              		.loc 7 36 13 is_stmt 1 view .LVU231
  37:../libdaisy/src/hid/midi.h ****             tx     = {DSY_GPIOB, 6};
 968              		.loc 7 37 13 view .LVU232
  38:../libdaisy/src/hid/midi.h ****         }
 969              		.loc 7 38 13 view .LVU233
ARM GAS  /var/folders/g8/1wk0j7gx1n5fw296n3mf_1g40000gn/T//cczcQ1mS.s 			page 42


 212:pluck.cpp     ****     midi.Init(midi_config);
 970              		.loc 8 212 5 view .LVU234
 971              	.LBB613:
 972              	.LBI575:
  95:../libdaisy/src/hid/midi.h ****     {
 973              		.loc 7 95 10 view .LVU235
 974              	.LBB606:
 975              	.LBB592:
 976              	.LBB588:
  58:../libdaisy/src/hid/midi.h ****     }
 977              		.loc 7 58 19 is_stmt 0 view .LVU236
 978 0036 6AA9     		add	r1, sp, #424
 979              	.LBE588:
 980              	.LBE592:
 981              		.loc 7 97 9 view .LVU237
 982 0038 48F80200 		str	r0, [r8, r2]
 983              	.LVL54:
 984              	.LBB593:
 985              	.LBI577:
  42:../libdaisy/src/hid/midi.h ****     {
 986              		.loc 7 42 17 is_stmt 1 view .LVU238
 987              	.LBB589:
  44:../libdaisy/src/hid/midi.h **** 
 988              		.loc 7 44 9 view .LVU239
 989              	.LBB579:
 990              	.LBI579:
 991              		.file 14 "../libdaisy/src/per/uart.h"
   1:../libdaisy/src/per/uart.h **** /* 
   2:../libdaisy/src/per/uart.h **** TODO
   3:../libdaisy/src/per/uart.h **** - UART1 defaults to DMA, add flexible config for DMA on all periphs
   4:../libdaisy/src/per/uart.h **** - Transmit function improvements.
   5:../libdaisy/src/per/uart.h **** - Overflow handling, etc. for Rx Queue.
   6:../libdaisy/src/per/uart.h **** */
   7:../libdaisy/src/per/uart.h **** 
   8:../libdaisy/src/per/uart.h **** #pragma once
   9:../libdaisy/src/per/uart.h **** #ifndef DSY_UART_H
  10:../libdaisy/src/per/uart.h **** #define DSY_UART_H /**< macro */
  11:../libdaisy/src/per/uart.h **** #include "daisy_core.h"
  12:../libdaisy/src/per/uart.h **** 
  13:../libdaisy/src/per/uart.h **** 
  14:../libdaisy/src/per/uart.h **** namespace daisy
  15:../libdaisy/src/per/uart.h **** {
  16:../libdaisy/src/per/uart.h **** /** @addtogroup serial
  17:../libdaisy/src/per/uart.h ****     @{
  18:../libdaisy/src/per/uart.h ****     */
  19:../libdaisy/src/per/uart.h **** 
  20:../libdaisy/src/per/uart.h **** /** 
  21:../libdaisy/src/per/uart.h ****     Uart Peripheral
  22:../libdaisy/src/per/uart.h ****     @author shensley
  23:../libdaisy/src/per/uart.h ****     @date March 2020
  24:../libdaisy/src/per/uart.h ****     */
  25:../libdaisy/src/per/uart.h **** class UartHandler
  26:../libdaisy/src/per/uart.h **** {
  27:../libdaisy/src/per/uart.h ****   public:
  28:../libdaisy/src/per/uart.h ****     struct Config
  29:../libdaisy/src/per/uart.h ****     {
  30:../libdaisy/src/per/uart.h ****         enum class Peripheral
ARM GAS  /var/folders/g8/1wk0j7gx1n5fw296n3mf_1g40000gn/T//cczcQ1mS.s 			page 43


  31:../libdaisy/src/per/uart.h ****         {
  32:../libdaisy/src/per/uart.h ****             USART_1,
  33:../libdaisy/src/per/uart.h ****             USART_2,
  34:../libdaisy/src/per/uart.h ****             USART_3,
  35:../libdaisy/src/per/uart.h ****             UART_4,
  36:../libdaisy/src/per/uart.h ****             UART_5,
  37:../libdaisy/src/per/uart.h ****             USART_6,
  38:../libdaisy/src/per/uart.h ****             UART_7,
  39:../libdaisy/src/per/uart.h ****             UART_8,
  40:../libdaisy/src/per/uart.h ****             LPUART_1,
  41:../libdaisy/src/per/uart.h ****         };
  42:../libdaisy/src/per/uart.h **** 
  43:../libdaisy/src/per/uart.h ****         enum class StopBits
  44:../libdaisy/src/per/uart.h ****         {
  45:../libdaisy/src/per/uart.h ****             BITS_0_5,
  46:../libdaisy/src/per/uart.h ****             BITS_1,
  47:../libdaisy/src/per/uart.h ****             BITS_1_5,
  48:../libdaisy/src/per/uart.h ****             BITS_2,
  49:../libdaisy/src/per/uart.h ****         };
  50:../libdaisy/src/per/uart.h **** 
  51:../libdaisy/src/per/uart.h ****         enum class Parity
  52:../libdaisy/src/per/uart.h ****         {
  53:../libdaisy/src/per/uart.h ****             NONE,
  54:../libdaisy/src/per/uart.h ****             EVEN,
  55:../libdaisy/src/per/uart.h ****             ODD,
  56:../libdaisy/src/per/uart.h ****         };
  57:../libdaisy/src/per/uart.h **** 
  58:../libdaisy/src/per/uart.h ****         enum class Mode
  59:../libdaisy/src/per/uart.h ****         {
  60:../libdaisy/src/per/uart.h ****             RX,
  61:../libdaisy/src/per/uart.h ****             TX,
  62:../libdaisy/src/per/uart.h ****             TX_RX,
  63:../libdaisy/src/per/uart.h ****         };
  64:../libdaisy/src/per/uart.h **** 
  65:../libdaisy/src/per/uart.h ****         enum class WordLength
  66:../libdaisy/src/per/uart.h ****         {
  67:../libdaisy/src/per/uart.h ****             BITS_7,
  68:../libdaisy/src/per/uart.h ****             BITS_8,
  69:../libdaisy/src/per/uart.h ****             BITS_9,
  70:../libdaisy/src/per/uart.h ****         };
  71:../libdaisy/src/per/uart.h **** 
  72:../libdaisy/src/per/uart.h ****         struct
  73:../libdaisy/src/per/uart.h ****         {
  74:../libdaisy/src/per/uart.h ****             dsy_gpio_pin tx; /**< & */
  75:../libdaisy/src/per/uart.h ****             dsy_gpio_pin rx; /**< & */
  76:../libdaisy/src/per/uart.h ****         } pin_config;        /**< & */
  77:../libdaisy/src/per/uart.h **** 
  78:../libdaisy/src/per/uart.h ****         Config()
 992              		.loc 14 78 9 view .LVU240
 993              	.LBB580:
 994              	.LBB581:
  79:../libdaisy/src/per/uart.h ****         {
  80:../libdaisy/src/per/uart.h ****             // user must init periph, pin_config, and periph
  81:../libdaisy/src/per/uart.h ****             stopbits   = StopBits::BITS_1;
 995              		.loc 14 81 13 view .LVU241
  82:../libdaisy/src/per/uart.h ****             parity     = Parity::NONE;
 996              		.loc 14 82 13 view .LVU242
ARM GAS  /var/folders/g8/1wk0j7gx1n5fw296n3mf_1g40000gn/T//cczcQ1mS.s 			page 44


  83:../libdaisy/src/per/uart.h ****             wordlength = WordLength::BITS_8;
 997              		.loc 14 83 13 view .LVU243
  84:../libdaisy/src/per/uart.h ****             baudrate   = 4800;
 998              		.loc 14 84 13 view .LVU244
 999              		.loc 14 84 13 is_stmt 0 view .LVU245
 1000              	.LBE581:
 1001              	.LBE580:
 1002              	.LBE579:
  47:../libdaisy/src/hid/midi.h ****         uart_config.stopbits   = UartHandler::Config::StopBits::BITS_1;
 1003              		.loc 7 47 9 is_stmt 1 view .LVU246
  48:../libdaisy/src/hid/midi.h ****         uart_config.parity     = UartHandler::Config::Parity::NONE;
 1004              		.loc 7 48 9 view .LVU247
  49:../libdaisy/src/hid/midi.h ****         uart_config.mode       = UartHandler::Config::Mode::TX_RX;
 1005              		.loc 7 49 9 view .LVU248
  50:../libdaisy/src/hid/midi.h ****         uart_config.wordlength = UartHandler::Config::WordLength::BITS_8;
 1006              		.loc 7 50 9 view .LVU249
  51:../libdaisy/src/hid/midi.h **** 
 1007              		.loc 7 51 9 view .LVU250
  54:../libdaisy/src/hid/midi.h ****         uart_config.pin_config.rx = config.rx;
 1008              		.loc 7 54 9 view .LVU251
  55:../libdaisy/src/hid/midi.h ****         uart_config.pin_config.tx = config.tx;
 1009              		.loc 7 55 9 view .LVU252
  56:../libdaisy/src/hid/midi.h **** 
 1010              		.loc 7 56 9 view .LVU253
  56:../libdaisy/src/hid/midi.h **** 
 1011              		.loc 7 56 35 is_stmt 0 view .LVU254
 1012 003c 00F57F00 		add	r0, r0, #16711680
  47:../libdaisy/src/hid/midi.h ****         uart_config.stopbits   = UartHandler::Config::StopBits::BITS_1;
 1013              		.loc 7 47 32 view .LVU255
 1014 0040 47F61222 		movw	r2, #31250
 1015              	.LBE589:
 1016              	.LBE593:
 1017              		.loc 7 97 9 view .LVU256
 1018 0044 48F80340 		str	r4, [r8, r3]
 1019              	.LBB594:
 1020              	.LBB590:
  56:../libdaisy/src/hid/midi.h **** 
 1021              		.loc 7 56 35 view .LVU257
 1022 0048 00F57F40 		add	r0, r0, #65280
 1023              	.LBB586:
 1024              	.LBB584:
 1025              	.LBB582:
  81:../libdaisy/src/per/uart.h ****             parity     = Parity::NONE;
 1026              		.loc 14 81 24 view .LVU258
 1027 004c 0123     		movs	r3, #1
 1028              	.LBE582:
 1029              	.LBE584:
 1030              	.LBE586:
  50:../libdaisy/src/hid/midi.h ****         uart_config.wordlength = UartHandler::Config::WordLength::BITS_8;
 1031              		.loc 7 50 32 view .LVU259
 1032 004e 6E95     		str	r5, [sp, #440]
  56:../libdaisy/src/hid/midi.h **** 
 1033              		.loc 7 56 35 view .LVU260
 1034 0050 6A90     		str	r0, [sp, #424]
 1035              	.LBE590:
 1036              	.LBE594:
 1037              	.LBE606:
ARM GAS  /var/folders/g8/1wk0j7gx1n5fw296n3mf_1g40000gn/T//cczcQ1mS.s 			page 45


 1038              	.LBE613:
 213:pluck.cpp     **** 
 214:pluck.cpp     ****     verb.Init(sample_rate);
 1039              		.loc 8 214 14 view .LVU261
 1040 0052 A54D     		ldr	r5, .L114+8
 1041              	.LBB614:
 1042              	.LBB607:
 1043              	.LBB595:
 1044              	.LBB591:
  58:../libdaisy/src/hid/midi.h ****     }
 1045              		.loc 7 58 19 view .LVU262
 1046 0054 A548     		ldr	r0, .L114+12
 1047              	.LVL55:
  54:../libdaisy/src/hid/midi.h ****         uart_config.pin_config.rx = config.rx;
 1048              		.loc 7 54 35 view .LVU263
 1049 0056 6B94     		str	r4, [sp, #428]
 1050              	.LBB587:
 1051              	.LBB585:
 1052              	.LBB583:
  82:../libdaisy/src/per/uart.h ****             wordlength = WordLength::BITS_8;
 1053              		.loc 14 82 24 view .LVU264
 1054 0058 6D94     		str	r4, [sp, #436]
  81:../libdaisy/src/per/uart.h ****             parity     = Parity::NONE;
 1055              		.loc 14 81 24 view .LVU265
 1056 005a 6C93     		str	r3, [sp, #432]
  83:../libdaisy/src/per/uart.h ****             baudrate   = 4800;
 1057              		.loc 14 83 24 view .LVU266
 1058 005c 6F93     		str	r3, [sp, #444]
 1059              	.LBE583:
 1060              	.LBE585:
 1061              	.LBE587:
  47:../libdaisy/src/hid/midi.h ****         uart_config.stopbits   = UartHandler::Config::StopBits::BITS_1;
 1062              		.loc 7 47 32 view .LVU267
 1063 005e 7092     		str	r2, [sp, #448]
  58:../libdaisy/src/hid/midi.h ****     }
 1064              		.loc 7 58 9 is_stmt 1 view .LVU268
  58:../libdaisy/src/hid/midi.h ****     }
 1065              		.loc 7 58 19 is_stmt 0 view .LVU269
 1066 0060 FFF7FEFF 		bl	_ZN5daisy11UartHandler4InitERKNS0_6ConfigE
 1067              	.LVL56:
  58:../libdaisy/src/hid/midi.h ****     }
 1068              		.loc 7 58 19 view .LVU270
 1069              	.LBE591:
 1070              	.LBE595:
 1071              	.LBB596:
 1072              	.LBI596:
 1073              		.file 15 "../libdaisy/src/util/ringbuffer.h"
   1:../libdaisy/src/util/ringbuffer.h **** #pragma once
   2:../libdaisy/src/util/ringbuffer.h **** #ifndef DSY_RINGBUFFER_H
   3:../libdaisy/src/util/ringbuffer.h **** #define DSY_RINGBUFFER_H
   4:../libdaisy/src/util/ringbuffer.h **** 
   5:../libdaisy/src/util/ringbuffer.h **** #include <algorithm>
   6:../libdaisy/src/util/ringbuffer.h **** 
   7:../libdaisy/src/util/ringbuffer.h **** namespace daisy
   8:../libdaisy/src/util/ringbuffer.h **** {
   9:../libdaisy/src/util/ringbuffer.h **** /** @addtogroup utility
  10:../libdaisy/src/util/ringbuffer.h ****     @{
ARM GAS  /var/folders/g8/1wk0j7gx1n5fw296n3mf_1g40000gn/T//cczcQ1mS.s 			page 46


  11:../libdaisy/src/util/ringbuffer.h **** */
  12:../libdaisy/src/util/ringbuffer.h **** 
  13:../libdaisy/src/util/ringbuffer.h **** /**
  14:../libdaisy/src/util/ringbuffer.h **** Utility Ring Buffer \n 
  15:../libdaisy/src/util/ringbuffer.h **** imported from pichenettes/stmlib
  16:../libdaisy/src/util/ringbuffer.h **** */
  17:../libdaisy/src/util/ringbuffer.h **** template <typename T, size_t size>
  18:../libdaisy/src/util/ringbuffer.h **** class RingBuffer
  19:../libdaisy/src/util/ringbuffer.h **** {
  20:../libdaisy/src/util/ringbuffer.h ****   public:
  21:../libdaisy/src/util/ringbuffer.h ****     RingBuffer() {}
  22:../libdaisy/src/util/ringbuffer.h **** 
  23:../libdaisy/src/util/ringbuffer.h ****     /** Initializes the Ring Buffer */
  24:../libdaisy/src/util/ringbuffer.h ****     inline void Init() { read_ptr_ = write_ptr_ = 0; }
 1074              		.loc 15 24 17 is_stmt 1 view .LVU271
 1075              	.LBB597:
 1076              		.loc 15 24 26 is_stmt 0 view .LVU272
 1077 0064 49F29803 		movw	r3, #37016
 1078              	.LBE597:
 1079              	.LBE596:
  98:../libdaisy/src/hid/midi.h **** 
  99:../libdaisy/src/hid/midi.h ****         transport_.Init(config_.transport_config);
 100:../libdaisy/src/hid/midi.h **** 
 101:../libdaisy/src/hid/midi.h ****         event_q_.Init();
 102:../libdaisy/src/hid/midi.h ****         incoming_message_.type = MessageLast;
 1080              		.loc 7 102 9 view .LVU273
 1081 0068 0A22     		movs	r2, #10
 1082              	.LBB601:
 1083              	.LBB598:
 1084              		.loc 15 24 26 view .LVU274
 1085 006a 49F29C01 		movw	r1, #37020
 1086              	.LBE598:
 1087              	.LBE601:
 1088              	.LBE607:
 1089              	.LBE614:
 1090              		.loc 8 214 14 view .LVU275
 1091 006e B0EE480A 		vmov.f32	s0, s16
 1092 0072 2846     		mov	r0, r5
 1093              	.LBB615:
 1094              	.LBB608:
 103:../libdaisy/src/hid/midi.h ****         pstate_                = ParserEmpty;
 1095              		.loc 7 103 9 view .LVU276
 1096 0074 88F80440 		strb	r4, [r8, #4]
 1097              	.LBB602:
 1098              	.LBB599:
 1099              		.loc 15 24 26 view .LVU277
 1100 0078 48F80140 		str	r4, [r8, r1]
 1101              	.LBE599:
 1102              	.LBE602:
 102:../libdaisy/src/hid/midi.h ****         pstate_                = ParserEmpty;
 1103              		.loc 7 102 9 view .LVU278
 1104 007c 88F80820 		strb	r2, [r8, #8]
 1105              	.LBB603:
 1106              	.LBB600:
 1107              		.loc 15 24 26 view .LVU279
 1108 0080 48F80340 		str	r4, [r8, r3]
 1109              	.LVL57:
ARM GAS  /var/folders/g8/1wk0j7gx1n5fw296n3mf_1g40000gn/T//cczcQ1mS.s 			page 47


 1110              		.loc 15 24 26 view .LVU280
 1111              	.LBE600:
 1112              	.LBE603:
 1113              	.LBE608:
 1114              	.LBE615:
 1115              		.loc 8 214 5 is_stmt 1 view .LVU281
 1116              		.loc 8 214 14 is_stmt 0 view .LVU282
 1117 0084 FFF7FEFF 		bl	_ZN7daisysp8ReverbSc4InitEf
 1118              	.LVL58:
 215:pluck.cpp     ****     verb.SetFeedback(0.95f);
 1119              		.loc 8 215 5 is_stmt 1 view .LVU283
 1120              	.LBB616:
 1121              	.LBI616:
  42:../DaisySP/Source/Effects/reverbsc.h ****     /** Initializes the reverb module, and sets the sample_rate at which the Process function will 
  43:../DaisySP/Source/Effects/reverbsc.h ****         Returns 0 if all good, or 1 if it runs out of delay times exceed maximum allowed.
  44:../DaisySP/Source/Effects/reverbsc.h ****     */
  45:../DaisySP/Source/Effects/reverbsc.h ****     int Init(float sample_rate);
  46:../DaisySP/Source/Effects/reverbsc.h **** 
  47:../DaisySP/Source/Effects/reverbsc.h ****     /** Process the input through the reverb, and updates values of out1, and out2 with the new pro
  48:../DaisySP/Source/Effects/reverbsc.h ****     */
  49:../DaisySP/Source/Effects/reverbsc.h ****     int Process(const float &in1, const float &in2, float *out1, float *out2);
  50:../DaisySP/Source/Effects/reverbsc.h **** 
  51:../DaisySP/Source/Effects/reverbsc.h ****     /** controls the reverb time. reverb tail becomes infinite when set to 1.0
  52:../DaisySP/Source/Effects/reverbsc.h ****         \param fb - sets reverb time. range: 0.0 to 1.0
  53:../DaisySP/Source/Effects/reverbsc.h ****     */
  54:../DaisySP/Source/Effects/reverbsc.h ****     inline void SetFeedback(const float &fb) { feedback_ = fb; }
 1122              		.loc 1 54 17 view .LVU284
 1123              	.LBB617:
 1124              		.loc 1 54 48 view .LVU285
 1125              	.LBE617:
 1126              	.LBE616:
 1127              	.LBB620:
 1128              	.LBB621:
 1129              	.LBB622:
 1130              	.LBB623:
 1131              	.LBB624:
 1132              	.LBB625:
  45:../DaisySP/Source/Synthesis/oscillator.h ****         freq_      = 100.0f;
 1133              		.loc 13 45 27 is_stmt 0 view .LVU286
 1134 0088 F7EE007A 		vmov.f32	s15, #1.0e+0
 1135 008c 984C     		ldr	r4, .L114+16
 1136              	.LBE625:
 1137              	.LBE624:
 1138              	.LBE623:
 1139              	.LBE622:
 1140              	.LBE621:
 1141              	.LBE620:
 1142              	.LBB658:
 1143              	.LBB618:
 1144              		.loc 1 54 58 view .LVU287
 1145 008e 994A     		ldr	r2, .L114+20
 1146              	.LBE618:
 1147              	.LBE658:
 1148              	.LBB659:
 1149              	.LBB660:
  55:../DaisySP/Source/Effects/reverbsc.h ****     /** controls the internal dampening filter's cutoff frequency.
  56:../DaisySP/Source/Effects/reverbsc.h ****         \param freq - low pass frequency. range: 0.0 to sample_rate / 2
ARM GAS  /var/folders/g8/1wk0j7gx1n5fw296n3mf_1g40000gn/T//cczcQ1mS.s 			page 48


  57:../DaisySP/Source/Effects/reverbsc.h ****     */
  58:../DaisySP/Source/Effects/reverbsc.h ****     inline void SetLpFreq(const float &freq) { lpfreq_ = freq; }
 1150              		.loc 1 58 56 view .LVU288
 1151 0090 994B     		ldr	r3, .L114+24
 1152 0092 04F58459 		add	r9, r4, #4224
 1153              	.LBE660:
 1154              	.LBE659:
 1155              	.LBB662:
 1156              	.LBB656:
 1157              	.LBB654:
 1158              	.LBB652:
 1159              	.LBB632:
 1160              	.LBB626:
  45:../DaisySP/Source/Synthesis/oscillator.h ****         freq_      = 100.0f;
 1161              		.loc 13 45 27 view .LVU289
 1162 0096 C7EE888A 		vdiv.f32	s17, s15, s16
 1163              	.LBE626:
 1164              	.LBE632:
 1165              	.LBE652:
 1166              	.LBE654:
 1167              	.LBE656:
 1168              	.LBE662:
 1169              	.LBB663:
 1170              	.LBB619:
  54:../DaisySP/Source/Effects/reverbsc.h ****     /** controls the internal dampening filter's cutoff frequency.
 1171              		.loc 1 54 58 view .LVU290
 1172 009a 2A60     		str	r2, [r5]	@ float
 1173              	.LBE619:
 1174              	.LBE663:
 216:pluck.cpp     ****     verb.SetLpFreq(5000.0f);
 1175              		.loc 8 216 5 is_stmt 1 view .LVU291
 1176              	.LBB664:
 1177              	.LBI659:
 1178              		.loc 1 58 17 view .LVU292
 1179              	.LVL59:
 1180              	.LBB661:
 1181              		.loc 1 58 48 view .LVU293
 1182              		.loc 1 58 56 is_stmt 0 view .LVU294
 1183 009c 6B60     		str	r3, [r5, #4]	@ float
 1184              	.LBE661:
 1185              	.LBE664:
 217:pluck.cpp     **** 
 218:pluck.cpp     ****     voice_handler.Init(sample_rate);
 1186              		.loc 8 218 5 is_stmt 1 view .LVU295
 1187              	.LVL60:
 1188              	.LBB665:
 1189              	.LBI620:
  78:pluck.cpp     ****     {
 1190              		.loc 8 78 10 view .LVU296
 1191              	.LBB657:
  80:pluck.cpp     ****         {
 1192              		.loc 8 80 29 view .LVU297
 1193              	.L47:
 1194              	.LBB655:
 1195              	.LBI622:
  14:pluck.cpp     ****     {
 1196              		.loc 8 14 10 view .LVU298
ARM GAS  /var/folders/g8/1wk0j7gx1n5fw296n3mf_1g40000gn/T//cczcQ1mS.s 			page 49


 1197              	.LBB653:
  16:pluck.cpp     ****         osc_.Init(samplerate);
 1198              		.loc 8 16 9 view .LVU299
  16:pluck.cpp     ****         osc_.Init(samplerate);
 1199              		.loc 8 16 17 is_stmt 0 view .LVU300
 1200 009e 0022     		movs	r2, #0
 1201              	.LBB633:
 1202              	.LBB627:
  48:../DaisySP/Source/Synthesis/oscillator.h ****         phase_inc_ = CalcPhaseInc(freq_);
 1203              		.loc 13 48 20 view .LVU301
 1204 00a0 0023     		movs	r3, #0
  46:../DaisySP/Source/Synthesis/oscillator.h ****         amp_       = 0.5f;
 1205              		.loc 13 46 20 view .LVU302
 1206 00a2 9FED960A 		vldr.32	s0, .L114+28
  47:../DaisySP/Source/Synthesis/oscillator.h ****         phase_     = 0.0f;
 1207              		.loc 13 47 20 view .LVU303
 1208 00a6 4FF07C57 		mov	r7, #1056964608
 1209              	.LBE627:
 1210              	.LBE633:
  16:pluck.cpp     ****         osc_.Init(samplerate);
 1211              		.loc 8 16 17 view .LVU304
 1212 00aa 84F88420 		strb	r2, [r4, #132]
  17:pluck.cpp     ****         osc_.SetAmp(0.75f);
 1213              		.loc 8 17 9 is_stmt 1 view .LVU305
 1214              	.LVL61:
 1215              	.LBB634:
 1216              	.LBI624:
  42:../DaisySP/Source/Synthesis/oscillator.h ****     {
 1217              		.loc 13 42 10 view .LVU306
 1218              	.LBB628:
  44:../DaisySP/Source/Synthesis/oscillator.h ****         sr_recip_  = 1.0f / sample_rate;
 1219              		.loc 13 44 9 view .LVU307
  45:../DaisySP/Source/Synthesis/oscillator.h ****         freq_      = 100.0f;
 1220              		.loc 13 45 9 view .LVU308
  46:../DaisySP/Source/Synthesis/oscillator.h ****         amp_       = 0.5f;
 1221              		.loc 13 46 9 view .LVU309
  47:../DaisySP/Source/Synthesis/oscillator.h ****         phase_     = 0.0f;
 1222              		.loc 13 47 9 view .LVU310
  49:../DaisySP/Source/Synthesis/oscillator.h ****         waveform_  = WAVE_SIN;
 1223              		.loc 13 49 34 is_stmt 0 view .LVU311
 1224 00ae A4F12800 		sub	r0, r4, #40
 1225              	.LVL62:
  48:../DaisySP/Source/Synthesis/oscillator.h ****         phase_inc_ = CalcPhaseInc(freq_);
 1226              		.loc 13 48 20 view .LVU312
 1227 00b2 44F8143C 		str	r3, [r4, #-20]	@ float
 1228 00b6 04F14C05 		add	r5, r4, #76
  44:../DaisySP/Source/Synthesis/oscillator.h ****         sr_recip_  = 1.0f / sample_rate;
 1229              		.loc 13 44 20 view .LVU313
 1230 00ba 04ED078A 		vstr.32	s16, [r4, #-28]
  51:../DaisySP/Source/Synthesis/oscillator.h ****         eor_       = true;
 1231              		.loc 13 51 20 view .LVU314
 1232 00be 0126     		movs	r6, #1
  45:../DaisySP/Source/Synthesis/oscillator.h ****         freq_      = 100.0f;
 1233              		.loc 13 45 20 view .LVU315
 1234 00c0 44ED068A 		vstr.32	s17, [r4, #-24]
  46:../DaisySP/Source/Synthesis/oscillator.h ****         amp_       = 0.5f;
 1235              		.loc 13 46 20 view .LVU316
ARM GAS  /var/folders/g8/1wk0j7gx1n5fw296n3mf_1g40000gn/T//cczcQ1mS.s 			page 50


 1236 00c4 04ED080A 		vstr.32	s0, [r4, #-32]
  47:../DaisySP/Source/Synthesis/oscillator.h ****         phase_     = 0.0f;
 1237              		.loc 13 47 20 view .LVU317
 1238 00c8 44F8247C 		str	r7, [r4, #-36]	@ float
  48:../DaisySP/Source/Synthesis/oscillator.h ****         phase_inc_ = CalcPhaseInc(freq_);
 1239              		.loc 13 48 9 is_stmt 1 view .LVU318
  49:../DaisySP/Source/Synthesis/oscillator.h ****         waveform_  = WAVE_SIN;
 1240              		.loc 13 49 9 view .LVU319
  49:../DaisySP/Source/Synthesis/oscillator.h ****         waveform_  = WAVE_SIN;
 1241              		.loc 13 49 34 is_stmt 0 view .LVU320
 1242 00cc FFF7FEFF 		bl	_ZN7daisysp10Oscillator12CalcPhaseIncEf
 1243              	.LVL63:
  49:../DaisySP/Source/Synthesis/oscillator.h ****         waveform_  = WAVE_SIN;
 1244              		.loc 13 49 34 view .LVU321
 1245 00d0 F0EE407A 		vmov.f32	s15, s0
 1246              	.LBE628:
 1247              	.LBE634:
 1248              	.LBB635:
 1249              	.LBB636:
  62:../DaisySP/Source/Synthesis/oscillator.h ****     }
  63:../DaisySP/Source/Synthesis/oscillator.h **** 
  64:../DaisySP/Source/Synthesis/oscillator.h **** 
  65:../DaisySP/Source/Synthesis/oscillator.h ****     /** Sets the amplitude of the waveform.
  66:../DaisySP/Source/Synthesis/oscillator.h ****     */
  67:../DaisySP/Source/Synthesis/oscillator.h ****     inline void SetAmp(const float a) { amp_ = a; }
 1250              		.loc 13 67 46 view .LVU322
 1251 00d4 4FF07D52 		mov	r2, #1061158912
 1252              	.LBE636:
 1253              	.LBE635:
 1254              	.LBB639:
 1255              	.LBB640:
  68:../DaisySP/Source/Synthesis/oscillator.h ****     /** Sets the waveform to be synthesized by the Process() function.
  69:../DaisySP/Source/Synthesis/oscillator.h ****     */
  70:../DaisySP/Source/Synthesis/oscillator.h ****     inline void SetWaveform(const uint8_t wf)
  71:../DaisySP/Source/Synthesis/oscillator.h ****     {
  72:../DaisySP/Source/Synthesis/oscillator.h ****         waveform_ = wf < WAVE_LAST ? wf : WAVE_SIN;
 1256              		.loc 13 72 19 view .LVU323
 1257 00d8 0523     		movs	r3, #5
 1258              	.LBE640:
 1259              	.LBE639:
 1260              	.LBB643:
 1261              	.LBB629:
  51:../DaisySP/Source/Synthesis/oscillator.h ****         eor_       = true;
 1262              		.loc 13 51 20 view .LVU324
 1263 00da 04F8036C 		strb	r6, [r4, #-3]
 1264              	.LBE629:
 1265              	.LBE643:
  20:pluck.cpp     ****         env_.SetSustainLevel(0.5f);
 1266              		.loc 8 20 18 view .LVU325
 1267 00de B0EE480A 		vmov.f32	s0, s16
 1268              	.LBB644:
 1269              	.LBB637:
  67:../DaisySP/Source/Synthesis/oscillator.h ****     /** Sets the waveform to be synthesized by the Process() function.
 1270              		.loc 13 67 46 view .LVU326
 1271 00e2 44F8242C 		str	r2, [r4, #-36]	@ float
 1272              	.LBE637:
 1273              	.LBE644:
ARM GAS  /var/folders/g8/1wk0j7gx1n5fw296n3mf_1g40000gn/T//cczcQ1mS.s 			page 51


  20:pluck.cpp     ****         env_.SetSustainLevel(0.5f);
 1274              		.loc 8 20 18 view .LVU327
 1275 00e6 3146     		mov	r1, r6
 1276              	.LBB645:
 1277              	.LBB630:
  49:../DaisySP/Source/Synthesis/oscillator.h ****         waveform_  = WAVE_SIN;
 1278              		.loc 13 49 20 view .LVU328
 1279 00e8 44ED047A 		vstr.32	s15, [r4, #-16]
  50:../DaisySP/Source/Synthesis/oscillator.h ****         eoc_       = true;
 1280              		.loc 13 50 9 is_stmt 1 view .LVU329
  51:../DaisySP/Source/Synthesis/oscillator.h ****         eor_       = true;
 1281              		.loc 13 51 9 view .LVU330
  52:../DaisySP/Source/Synthesis/oscillator.h ****     }
 1282              		.loc 13 52 9 view .LVU331
 1283              	.LVL64:
  52:../DaisySP/Source/Synthesis/oscillator.h ****     }
 1284              		.loc 13 52 9 is_stmt 0 view .LVU332
 1285              	.LBE630:
 1286              	.LBE645:
  18:pluck.cpp     ****         osc_.SetWaveform(Oscillator::WAVE_POLYBLEP_TRI);
 1287              		.loc 8 18 9 is_stmt 1 view .LVU333
 1288              	.LBB646:
 1289              	.LBI635:
  67:../DaisySP/Source/Synthesis/oscillator.h ****     /** Sets the waveform to be synthesized by the Process() function.
 1290              		.loc 13 67 17 view .LVU334
 1291              	.LBB638:
  67:../DaisySP/Source/Synthesis/oscillator.h ****     /** Sets the waveform to be synthesized by the Process() function.
 1292              		.loc 13 67 41 view .LVU335
  67:../DaisySP/Source/Synthesis/oscillator.h ****     /** Sets the waveform to be synthesized by the Process() function.
 1293              		.loc 13 67 41 is_stmt 0 view .LVU336
 1294              	.LBE638:
 1295              	.LBE646:
  19:pluck.cpp     ****         env_.Init(samplerate);
 1296              		.loc 8 19 9 is_stmt 1 view .LVU337
 1297              	.LBB647:
 1298              	.LBI639:
  70:../DaisySP/Source/Synthesis/oscillator.h ****     {
 1299              		.loc 13 70 17 view .LVU338
 1300              	.LBB641:
 1301              		.loc 13 72 9 view .LVU339
 1302              	.LBE641:
 1303              	.LBE647:
  20:pluck.cpp     ****         env_.SetSustainLevel(0.5f);
 1304              		.loc 8 20 18 is_stmt 0 view .LVU340
 1305 00ec 2846     		mov	r0, r5
 1306              	.LBB648:
 1307              	.LBB642:
 1308              		.loc 13 72 19 view .LVU341
 1309 00ee 04F8283C 		strb	r3, [r4, #-40]
 1310              	.LVL65:
 1311              		.loc 13 72 19 view .LVU342
 1312              	.LBE642:
 1313              	.LBE648:
  20:pluck.cpp     ****         env_.SetSustainLevel(0.5f);
 1314              		.loc 8 20 9 is_stmt 1 view .LVU343
 1315              	.LBB649:
 1316              	.LBB631:
ARM GAS  /var/folders/g8/1wk0j7gx1n5fw296n3mf_1g40000gn/T//cczcQ1mS.s 			page 52


  52:../DaisySP/Source/Synthesis/oscillator.h ****     }
 1317              		.loc 13 52 20 is_stmt 0 view .LVU344
 1318 00f2 04F8046C 		strb	r6, [r4, #-4]
 1319              	.LBE631:
 1320              	.LBE649:
  20:pluck.cpp     ****         env_.SetSustainLevel(0.5f);
 1321              		.loc 8 20 18 view .LVU345
 1322 00f6 FFF7FEFF 		bl	_ZN7daisysp4Adsr4InitEfi
 1323              	.LVL66:
  21:pluck.cpp     ****         env_.SetTime(ADSR_SEG_ATTACK, 1.01f);
 1324              		.loc 8 21 9 is_stmt 1 view .LVU346
 1325              	.LBB650:
 1326              	.LBI650:
  66:../DaisySP/Source/Control/adsr.h ****     {
 1327              		.loc 9 66 17 view .LVU347
 1328              	.LBB651:
  68:../DaisySP/Source/Control/adsr.h ****                                        : (sus_level > 1.f) ? 1.f : sus_level;
 1329              		.loc 9 68 9 view .LVU348
  70:../DaisySP/Source/Control/adsr.h ****     }
 1330              		.loc 9 70 9 view .LVU349
  70:../DaisySP/Source/Control/adsr.h ****     }
 1331              		.loc 9 70 20 is_stmt 0 view .LVU350
 1332 00fa E764     		str	r7, [r4, #76]	@ float
 1333              	.LVL67:
  70:../DaisySP/Source/Control/adsr.h ****     }
 1334              		.loc 9 70 20 view .LVU351
 1335              	.LBE651:
 1336              	.LBE650:
  22:pluck.cpp     ****         env_.SetTime(ADSR_SEG_DECAY, 0.005f);
 1337              		.loc 8 22 9 is_stmt 1 view .LVU352
  22:pluck.cpp     ****         env_.SetTime(ADSR_SEG_DECAY, 0.005f);
 1338              		.loc 8 22 21 is_stmt 0 view .LVU353
 1339 00fc 3146     		mov	r1, r6
 1340 00fe 2846     		mov	r0, r5
 1341 0100 9FED7F0A 		vldr.32	s0, .L114+32
 1342 0104 FFF7FEFF 		bl	_ZN7daisysp4Adsr7SetTimeEif
 1343              	.LVL68:
  23:pluck.cpp     ****         env_.SetTime(ADSR_SEG_RELEASE, 0.2f);
 1344              		.loc 8 23 9 is_stmt 1 view .LVU354
  23:pluck.cpp     ****         env_.SetTime(ADSR_SEG_RELEASE, 0.2f);
 1345              		.loc 8 23 21 is_stmt 0 view .LVU355
 1346 0108 2846     		mov	r0, r5
 1347 010a 9FED7E0A 		vldr.32	s0, .L114+36
 1348 010e 0221     		movs	r1, #2
 1349 0110 FFF7FEFF 		bl	_ZN7daisysp4Adsr7SetTimeEif
 1350              	.LVL69:
  24:pluck.cpp     ****         filt_.Init(samplerate);
 1351              		.loc 8 24 9 is_stmt 1 view .LVU356
  24:pluck.cpp     ****         filt_.Init(samplerate);
 1352              		.loc 8 24 21 is_stmt 0 view .LVU357
 1353 0114 0421     		movs	r1, #4
 1354 0116 2846     		mov	r0, r5
 1355 0118 9FED7B0A 		vldr.32	s0, .L114+40
 1356 011c FFF7FEFF 		bl	_ZN7daisysp4Adsr7SetTimeEif
 1357              	.LVL70:
  25:pluck.cpp     ****         filt_.SetFreq(6000.f);
 1358              		.loc 8 25 9 is_stmt 1 view .LVU358
ARM GAS  /var/folders/g8/1wk0j7gx1n5fw296n3mf_1g40000gn/T//cczcQ1mS.s 			page 53


  25:pluck.cpp     ****         filt_.SetFreq(6000.f);
 1359              		.loc 8 25 19 is_stmt 0 view .LVU359
 1360 0120 2046     		mov	r0, r4
 1361 0122 B0EE480A 		vmov.f32	s0, s16
 1362 0126 FFF7FEFF 		bl	_ZN7daisysp3Svf4InitEf
 1363              	.LVL71:
  26:pluck.cpp     ****         filt_.SetRes(0.6f);
 1364              		.loc 8 26 9 is_stmt 1 view .LVU360
  26:pluck.cpp     ****         filt_.SetRes(0.6f);
 1365              		.loc 8 26 22 is_stmt 0 view .LVU361
 1366 012a 2046     		mov	r0, r4
 1367 012c 9FED770A 		vldr.32	s0, .L114+44
 1368 0130 FFF7FEFF 		bl	_ZN7daisysp3Svf7SetFreqEf
 1369              	.LVL72:
  27:pluck.cpp     ****         filt_.SetDrive(0.8f);
 1370              		.loc 8 27 9 is_stmt 1 view .LVU362
  27:pluck.cpp     ****         filt_.SetDrive(0.8f);
 1371              		.loc 8 27 21 is_stmt 0 view .LVU363
 1372 0134 2046     		mov	r0, r4
 1373 0136 9FED760A 		vldr.32	s0, .L114+48
 1374 013a FFF7FEFF 		bl	_ZN7daisysp3Svf6SetResEf
 1375              	.LVL73:
  28:pluck.cpp     ****     }
 1376              		.loc 8 28 9 is_stmt 1 view .LVU364
  28:pluck.cpp     ****     }
 1377              		.loc 8 28 23 is_stmt 0 view .LVU365
 1378 013e 2046     		mov	r0, r4
 1379 0140 B034     		adds	r4, r4, #176
 1380              	.LVL74:
  28:pluck.cpp     ****     }
 1381              		.loc 8 28 23 view .LVU366
 1382 0142 9FED740A 		vldr.32	s0, .L114+52
 1383 0146 FFF7FEFF 		bl	_ZN7daisysp3Svf8SetDriveEf
 1384              	.LVL75:
  28:pluck.cpp     ****     }
 1385              		.loc 8 28 23 view .LVU367
 1386              	.LBE653:
 1387              	.LBE655:
  80:pluck.cpp     ****         {
 1388              		.loc 8 80 9 is_stmt 1 view .LVU368
  80:pluck.cpp     ****         {
 1389              		.loc 8 80 29 view .LVU369
 1390 014a 4C45     		cmp	r4, r9
 1391 014c A7D1     		bne	.L47
 1392              	.LVL76:
  80:pluck.cpp     ****         {
 1393              		.loc 8 80 29 is_stmt 0 view .LVU370
 1394              	.LBE657:
 1395              	.LBE665:
 219:pluck.cpp     **** 
 220:pluck.cpp     ****     // start callback
 221:pluck.cpp     ****     seed_handle.StartAudio(AudioCallback);
 1396              		.loc 8 221 5 is_stmt 1 view .LVU371
 1397 014e DFF8E4A1 		ldr	r10, .L114+84
 1398 0152 22AE     		add	r6, sp, #136
 1399              		.loc 8 221 27 is_stmt 0 view .LVU372
 1400 0154 6248     		ldr	r0, .L114
ARM GAS  /var/folders/g8/1wk0j7gx1n5fw296n3mf_1g40000gn/T//cczcQ1mS.s 			page 54


 1401 0156 AAF10804 		sub	r4, r10, #8
 1402              	.LVL77:
 1403              		.loc 8 221 27 view .LVU373
 1404 015a 6F49     		ldr	r1, .L114+56
 1405 015c FFF7FEFF 		bl	_ZN5daisy9DaisySeed10StartAudioEPFvPKPKfPPfjE
 1406              	.LVL78:
 222:pluck.cpp     ****     midi.StartReceive();
 1407              		.loc 8 222 5 is_stmt 1 view .LVU374
 1408              	.LBB666:
 1409              	.LBI666:
 104:../libdaisy/src/hid/midi.h ****     }
 105:../libdaisy/src/hid/midi.h **** 
 106:../libdaisy/src/hid/midi.h ****     /** Starts listening on the selected input mode(s). MidiEvent Queue will begin to fill, and can
 107:../libdaisy/src/hid/midi.h ****     void StartReceive() { transport_.StartRx(); }
 1410              		.loc 7 107 10 view .LVU375
 1411              	.LBB667:
 1412              	.LBB668:
 1413              	.LBI668:
  61:../libdaisy/src/hid/midi.h ****     inline size_t  Readable() { return uart_.Readable(); }
 1414              		.loc 7 61 20 view .LVU376
 1415              	.LBB669:
  61:../libdaisy/src/hid/midi.h ****     inline size_t  Readable() { return uart_.Readable(); }
 1416              		.loc 7 61 32 view .LVU377
 1417 0160 0AF1140B 		add	fp, r10, #20
  61:../libdaisy/src/hid/midi.h ****     inline size_t  Readable() { return uart_.Readable(); }
 1418              		.loc 7 61 45 is_stmt 0 view .LVU378
 1419 0164 04F11800 		add	r0, r4, #24
 1420 0168 AAF10405 		sub	r5, r10, #4
 1421              	.LVL79:
  61:../libdaisy/src/hid/midi.h ****     inline size_t  Readable() { return uart_.Readable(); }
 1422              		.loc 7 61 45 view .LVU379
 1423 016c FFF7FEFF 		bl	_ZN5daisy11UartHandler7StartRxEv
 1424              	.LVL80:
 1425              	.L74:
  61:../libdaisy/src/hid/midi.h ****     inline size_t  Readable() { return uart_.Readable(); }
 1426              		.loc 7 61 45 view .LVU380
 1427              	.LBE669:
 1428              	.LBE668:
 1429              	.LBE667:
 1430              	.LBE666:
 223:pluck.cpp     **** 
 224:pluck.cpp     ****     while(1) 
 1431              		.loc 8 224 5 is_stmt 1 view .LVU381
 225:pluck.cpp     ****     {
 226:pluck.cpp     ****         midi.Listen();
 1432              		.loc 8 226 9 view .LVU382
 1433              	.LBB670:
 1434              	.LBI670:
 108:../libdaisy/src/hid/midi.h **** 
 109:../libdaisy/src/hid/midi.h ****     /** Start listening */
 110:../libdaisy/src/hid/midi.h ****     void Listen()
 1435              		.loc 7 110 10 view .LVU383
 1436              	.LBB671:
 111:../libdaisy/src/hid/midi.h ****     {
 112:../libdaisy/src/hid/midi.h ****         uint32_t now;
 113:../libdaisy/src/hid/midi.h ****         now = System::GetNow();
 1437              		.loc 7 113 29 is_stmt 0 view .LVU384
ARM GAS  /var/folders/g8/1wk0j7gx1n5fw296n3mf_1g40000gn/T//cczcQ1mS.s 			page 55


 1438 0170 FFF7FEFF 		bl	_ZN5daisy6System6GetNowEv
 1439              	.LVL81:
 1440              		.loc 7 113 29 view .LVU385
 1441 0174 0746     		mov	r7, r0
 1442              	.LVL82:
 1443              	.L48:
 114:../libdaisy/src/hid/midi.h ****         while(transport_.Readable())
 1444              		.loc 7 114 9 is_stmt 1 view .LVU386
 1445              	.LBB672:
 1446              	.LBI672:
  62:../libdaisy/src/hid/midi.h ****     inline uint8_t Rx() { return uart_.PopRx(); }
 1447              		.loc 7 62 20 view .LVU387
 1448              	.LBB673:
  62:../libdaisy/src/hid/midi.h ****     inline uint8_t Rx() { return uart_.PopRx(); }
 1449              		.loc 7 62 33 view .LVU388
  62:../libdaisy/src/hid/midi.h ****     inline uint8_t Rx() { return uart_.PopRx(); }
 1450              		.loc 7 62 54 is_stmt 0 view .LVU389
 1451 0176 5D48     		ldr	r0, .L114+12
 1452              	.LVL83:
  62:../libdaisy/src/hid/midi.h ****     inline uint8_t Rx() { return uart_.PopRx(); }
 1453              		.loc 7 62 54 view .LVU390
 1454 0178 FFF7FEFF 		bl	_ZN5daisy11UartHandler8ReadableEv
 1455              	.LVL84:
  62:../libdaisy/src/hid/midi.h ****     inline uint8_t Rx() { return uart_.PopRx(); }
 1456              		.loc 7 62 54 view .LVU391
 1457              	.LBE673:
 1458              	.LBE672:
 1459              		.loc 7 114 9 view .LVU392
 1460 017c 00B3     		cbz	r0, .L50
 1461              	.L110:
 1462              	.LBB676:
 1463              	.LBB677:
  63:../libdaisy/src/hid/midi.h ****     inline bool    RxActive() { return uart_.RxActive(); }
 1464              		.loc 7 63 45 view .LVU393
 1465 017e 5B48     		ldr	r0, .L114+12
 1466              	.LBE677:
 1467              	.LBE676:
 115:../libdaisy/src/hid/midi.h ****         {
 116:../libdaisy/src/hid/midi.h ****             last_read_ = now;
 1468              		.loc 7 116 13 view .LVU394
 1469 0180 CAF80070 		str	r7, [r10]
 1470              	.LVL85:
 1471              	.LBB679:
 1472              	.LBI676:
  63:../libdaisy/src/hid/midi.h ****     inline bool    RxActive() { return uart_.RxActive(); }
 1473              		.loc 7 63 20 is_stmt 1 view .LVU395
 1474              	.LBB678:
  63:../libdaisy/src/hid/midi.h ****     inline bool    RxActive() { return uart_.RxActive(); }
 1475              		.loc 7 63 27 view .LVU396
  63:../libdaisy/src/hid/midi.h ****     inline bool    RxActive() { return uart_.RxActive(); }
 1476              		.loc 7 63 45 is_stmt 0 view .LVU397
 1477 0184 FFF7FEFF 		bl	_ZN5daisy11UartHandler5PopRxEv
 1478              	.LVL86:
  63:../libdaisy/src/hid/midi.h ****     inline bool    RxActive() { return uart_.RxActive(); }
 1479              		.loc 7 63 45 view .LVU398
 1480 0188 98F80430 		ldrb	r3, [r8, #4]	@ zero_extendqisi2
 1481              	.LVL87:
ARM GAS  /var/folders/g8/1wk0j7gx1n5fw296n3mf_1g40000gn/T//cczcQ1mS.s 			page 56


  63:../libdaisy/src/hid/midi.h ****     inline bool    RxActive() { return uart_.RxActive(); }
 1482              		.loc 7 63 45 view .LVU399
 1483              	.LBE678:
 1484              	.LBE679:
 1485              	.LBB680:
 1486              	.LBI680:
 117:../libdaisy/src/hid/midi.h ****             Parse(transport_.Rx());
 118:../libdaisy/src/hid/midi.h ****         }
 119:../libdaisy/src/hid/midi.h **** 
 120:../libdaisy/src/hid/midi.h ****         // In case of UART Error, (particularly
 121:../libdaisy/src/hid/midi.h ****         //  overrun error), UART disables itself.
 122:../libdaisy/src/hid/midi.h ****         // Flush the buff, and restart.
 123:../libdaisy/src/hid/midi.h ****         if(!transport_.RxActive())
 124:../libdaisy/src/hid/midi.h ****         {
 125:../libdaisy/src/hid/midi.h ****             pstate_ = ParserEmpty;
 126:../libdaisy/src/hid/midi.h ****             transport_.FlushRx();
 127:../libdaisy/src/hid/midi.h ****             StartReceive();
 128:../libdaisy/src/hid/midi.h ****         }
 129:../libdaisy/src/hid/midi.h ****     }
 130:../libdaisy/src/hid/midi.h **** 
 131:../libdaisy/src/hid/midi.h ****     /** Checks if there are unhandled messages in the queue 
 132:../libdaisy/src/hid/midi.h ****     \return True if there are events to be handled, else false.
 133:../libdaisy/src/hid/midi.h ****      */
 134:../libdaisy/src/hid/midi.h ****     bool HasEvents() const { return event_q_.readable(); }
 135:../libdaisy/src/hid/midi.h **** 
 136:../libdaisy/src/hid/midi.h **** 
 137:../libdaisy/src/hid/midi.h ****     /** Pops the oldest unhandled MidiEvent from the internal queue
 138:../libdaisy/src/hid/midi.h ****     \return The event to be handled
 139:../libdaisy/src/hid/midi.h ****      */
 140:../libdaisy/src/hid/midi.h ****     MidiEvent PopEvent() { return event_q_.Read(); }
 141:../libdaisy/src/hid/midi.h **** 
 142:../libdaisy/src/hid/midi.h ****     /** SendMessage
 143:../libdaisy/src/hid/midi.h ****     Send raw bytes as message
 144:../libdaisy/src/hid/midi.h ****     */
 145:../libdaisy/src/hid/midi.h ****     void SendMessage(uint8_t* bytes, size_t size)
 146:../libdaisy/src/hid/midi.h ****     {
 147:../libdaisy/src/hid/midi.h ****         transport_.Tx(bytes, size);
 148:../libdaisy/src/hid/midi.h ****     }
 149:../libdaisy/src/hid/midi.h **** 
 150:../libdaisy/src/hid/midi.h ****     /** Feed in bytes to state machine from a queue.
 151:../libdaisy/src/hid/midi.h ****     Populates internal FIFO queue with MIDI Messages
 152:../libdaisy/src/hid/midi.h ****     For example with uart:
 153:../libdaisy/src/hid/midi.h ****     midi.Parse(uart.PopRx());
 154:../libdaisy/src/hid/midi.h ****     \param byte &
 155:../libdaisy/src/hid/midi.h ****     */
 156:../libdaisy/src/hid/midi.h ****     void Parse(uint8_t byte)
 1487              		.loc 7 156 10 is_stmt 1 view .LVU400
 1488 018c 032B     		cmp	r3, #3
 1489 018e F2D8     		bhi	.L48
 1490 0190 DFE803F0 		tbb	[pc, r3]
 1491              	.L52:
 1492 0194 74       		.byte	(.L55-.L52)/2
 1493 0195 D2       		.byte	(.L54-.L52)/2
 1494 0196 40       		.byte	(.L53-.L52)/2
 1495 0197 02       		.byte	(.L51-.L52)/2
 1496              		.p2align 1
 1497              	.L51:
ARM GAS  /var/folders/g8/1wk0j7gx1n5fw296n3mf_1g40000gn/T//cczcQ1mS.s 			page 57


 1498              	.LBB681:
 157:../libdaisy/src/hid/midi.h ****     {
 158:../libdaisy/src/hid/midi.h ****         switch(pstate_)
 159:../libdaisy/src/hid/midi.h ****         {
 160:../libdaisy/src/hid/midi.h ****             case ParserEmpty:
 161:../libdaisy/src/hid/midi.h ****                 // check byte for valid Status Byte
 162:../libdaisy/src/hid/midi.h ****                 if(byte & kStatusByteMask)
 163:../libdaisy/src/hid/midi.h ****                 {
 164:../libdaisy/src/hid/midi.h ****                     // Get MessageType, and Channel
 165:../libdaisy/src/hid/midi.h ****                     incoming_message_.channel = byte & kChannelMask;
 166:../libdaisy/src/hid/midi.h ****                     incoming_message_.type    = static_cast<MidiMessageType>(
 167:../libdaisy/src/hid/midi.h ****                         (byte & kMessageMask) >> 4);
 168:../libdaisy/src/hid/midi.h **** 
 169:../libdaisy/src/hid/midi.h ****                     // Validate, and move on.
 170:../libdaisy/src/hid/midi.h ****                     if(incoming_message_.type < MessageLast)
 171:../libdaisy/src/hid/midi.h ****                     {
 172:../libdaisy/src/hid/midi.h ****                         pstate_ = ParserHasStatus;
 173:../libdaisy/src/hid/midi.h ****                         // Mark this status byte as running_status
 174:../libdaisy/src/hid/midi.h ****                         running_status_ = incoming_message_.type;
 175:../libdaisy/src/hid/midi.h **** 
 176:../libdaisy/src/hid/midi.h ****                         if(running_status_ == SystemCommon)
 177:../libdaisy/src/hid/midi.h ****                         {
 178:../libdaisy/src/hid/midi.h ****                             incoming_message_.channel = 0;
 179:../libdaisy/src/hid/midi.h ****                             //system real time = 1111 1xxx
 180:../libdaisy/src/hid/midi.h ****                             if(byte & 0x08)
 181:../libdaisy/src/hid/midi.h ****                             {
 182:../libdaisy/src/hid/midi.h ****                                 incoming_message_.type = SystemRealTime;
 183:../libdaisy/src/hid/midi.h ****                                 running_status_        = SystemRealTime;
 184:../libdaisy/src/hid/midi.h ****                                 incoming_message_.srt_type
 185:../libdaisy/src/hid/midi.h ****                                     = static_cast<SystemRealTimeType>(
 186:../libdaisy/src/hid/midi.h ****                                         byte & kSystemRealTimeMask);
 187:../libdaisy/src/hid/midi.h **** 
 188:../libdaisy/src/hid/midi.h ****                                 //short circuit to start
 189:../libdaisy/src/hid/midi.h ****                                 pstate_ = ParserEmpty;
 190:../libdaisy/src/hid/midi.h ****                                 event_q_.Write(incoming_message_);
 191:../libdaisy/src/hid/midi.h ****                             }
 192:../libdaisy/src/hid/midi.h ****                             //system common
 193:../libdaisy/src/hid/midi.h ****                             else
 194:../libdaisy/src/hid/midi.h ****                             {
 195:../libdaisy/src/hid/midi.h ****                                 incoming_message_.sc_type
 196:../libdaisy/src/hid/midi.h ****                                     = static_cast<SystemCommonType>(byte
 197:../libdaisy/src/hid/midi.h ****                                                                     & 0x07);
 198:../libdaisy/src/hid/midi.h ****                                 //sysex
 199:../libdaisy/src/hid/midi.h ****                                 if(incoming_message_.sc_type == SystemExclusive)
 200:../libdaisy/src/hid/midi.h ****                                 {
 201:../libdaisy/src/hid/midi.h ****                                     pstate_ = ParserSysEx;
 202:../libdaisy/src/hid/midi.h ****                                     incoming_message_.sysex_message_len = 0;
 203:../libdaisy/src/hid/midi.h ****                                 }
 204:../libdaisy/src/hid/midi.h ****                                 //short circuit
 205:../libdaisy/src/hid/midi.h ****                                 else if(incoming_message_.sc_type > SongSelect)
 206:../libdaisy/src/hid/midi.h ****                                 {
 207:../libdaisy/src/hid/midi.h ****                                     pstate_ = ParserEmpty;
 208:../libdaisy/src/hid/midi.h ****                                     event_q_.Write(incoming_message_);
 209:../libdaisy/src/hid/midi.h ****                                 }
 210:../libdaisy/src/hid/midi.h ****                             }
 211:../libdaisy/src/hid/midi.h ****                         }
 212:../libdaisy/src/hid/midi.h ****                     }
ARM GAS  /var/folders/g8/1wk0j7gx1n5fw296n3mf_1g40000gn/T//cczcQ1mS.s 			page 58


 213:../libdaisy/src/hid/midi.h ****                     // Else we'll keep waiting for a valid incoming status byte
 214:../libdaisy/src/hid/midi.h ****                 }
 215:../libdaisy/src/hid/midi.h ****                 else
 216:../libdaisy/src/hid/midi.h ****                 {
 217:../libdaisy/src/hid/midi.h ****                     // Handle as running status
 218:../libdaisy/src/hid/midi.h ****                     incoming_message_.type    = running_status_;
 219:../libdaisy/src/hid/midi.h ****                     incoming_message_.data[0] = byte & kDataByteMask;
 220:../libdaisy/src/hid/midi.h ****                     pstate_                   = ParserHasData0;
 221:../libdaisy/src/hid/midi.h ****                 }
 222:../libdaisy/src/hid/midi.h ****                 break;
 223:../libdaisy/src/hid/midi.h ****             case ParserHasStatus:
 224:../libdaisy/src/hid/midi.h ****                 if((byte & kStatusByteMask) == 0)
 225:../libdaisy/src/hid/midi.h ****                 {
 226:../libdaisy/src/hid/midi.h ****                     incoming_message_.data[0] = byte & kDataByteMask;
 227:../libdaisy/src/hid/midi.h ****                     if(running_status_ == ChannelPressure
 228:../libdaisy/src/hid/midi.h ****                        || running_status_ == ProgramChange
 229:../libdaisy/src/hid/midi.h ****                        || incoming_message_.sc_type == MTCQuarterFrame
 230:../libdaisy/src/hid/midi.h ****                        || incoming_message_.sc_type == SongSelect)
 231:../libdaisy/src/hid/midi.h ****                     {
 232:../libdaisy/src/hid/midi.h ****                         //these are just one data byte, so we short circuit back to start
 233:../libdaisy/src/hid/midi.h ****                         pstate_ = ParserEmpty;
 234:../libdaisy/src/hid/midi.h ****                         event_q_.Write(incoming_message_);
 235:../libdaisy/src/hid/midi.h ****                     }
 236:../libdaisy/src/hid/midi.h ****                     else
 237:../libdaisy/src/hid/midi.h ****                     {
 238:../libdaisy/src/hid/midi.h ****                         pstate_ = ParserHasData0;
 239:../libdaisy/src/hid/midi.h ****                     }
 240:../libdaisy/src/hid/midi.h **** 
 241:../libdaisy/src/hid/midi.h ****                     //ChannelModeMessages (reserved Control Changes)
 242:../libdaisy/src/hid/midi.h ****                     if(running_status_ == ControlChange
 243:../libdaisy/src/hid/midi.h ****                        && incoming_message_.data[0] > 119)
 244:../libdaisy/src/hid/midi.h ****                     {
 245:../libdaisy/src/hid/midi.h ****                         incoming_message_.type = ChannelMode;
 246:../libdaisy/src/hid/midi.h ****                         running_status_        = ChannelMode;
 247:../libdaisy/src/hid/midi.h ****                         incoming_message_.cm_type
 248:../libdaisy/src/hid/midi.h ****                             = static_cast<ChannelModeType>(
 249:../libdaisy/src/hid/midi.h ****                                 incoming_message_.data[0] - 120);
 250:../libdaisy/src/hid/midi.h ****                     }
 251:../libdaisy/src/hid/midi.h ****                 }
 252:../libdaisy/src/hid/midi.h ****                 else
 253:../libdaisy/src/hid/midi.h ****                 {
 254:../libdaisy/src/hid/midi.h ****                     // invalid message go back to start ;p
 255:../libdaisy/src/hid/midi.h ****                     pstate_ = ParserEmpty;
 256:../libdaisy/src/hid/midi.h ****                 }
 257:../libdaisy/src/hid/midi.h ****                 break;
 258:../libdaisy/src/hid/midi.h ****             case ParserHasData0:
 259:../libdaisy/src/hid/midi.h ****                 if((byte & kStatusByteMask) == 0)
 260:../libdaisy/src/hid/midi.h ****                 {
 261:../libdaisy/src/hid/midi.h ****                     incoming_message_.data[1] = byte & kDataByteMask;
 262:../libdaisy/src/hid/midi.h **** 
 263:../libdaisy/src/hid/midi.h ****                     //velocity 0 NoteOns are NoteOffs
 264:../libdaisy/src/hid/midi.h ****                     if(running_status_ == NoteOn
 265:../libdaisy/src/hid/midi.h ****                        && incoming_message_.data[1] == 0)
 266:../libdaisy/src/hid/midi.h ****                     {
 267:../libdaisy/src/hid/midi.h ****                         incoming_message_.type = running_status_ = NoteOff;
 268:../libdaisy/src/hid/midi.h ****                     }
 269:../libdaisy/src/hid/midi.h **** 
ARM GAS  /var/folders/g8/1wk0j7gx1n5fw296n3mf_1g40000gn/T//cczcQ1mS.s 			page 59


 270:../libdaisy/src/hid/midi.h ****                     // At this point the message is valid, and we can add this MidiEvent to the que
 271:../libdaisy/src/hid/midi.h ****                     event_q_.Write(incoming_message_);
 272:../libdaisy/src/hid/midi.h ****                 }
 273:../libdaisy/src/hid/midi.h ****                 // Regardless, of whether the data was valid or not we go back to empty
 274:../libdaisy/src/hid/midi.h ****                 // because either the message is queued for handling or its not.
 275:../libdaisy/src/hid/midi.h ****                 pstate_ = ParserEmpty;
 276:../libdaisy/src/hid/midi.h ****                 break;
 277:../libdaisy/src/hid/midi.h ****             case ParserSysEx:
 278:../libdaisy/src/hid/midi.h ****                 // end of sysex
 279:../libdaisy/src/hid/midi.h ****                 if(byte == 0xf7)
 1499              		.loc 7 279 17 is_stmt 0 view .LVU401
 1500 0198 F728     		cmp	r0, #247
 1501 019a 00F02F81 		beq	.L109
 280:../libdaisy/src/hid/midi.h ****                 {
 281:../libdaisy/src/hid/midi.h ****                     pstate_ = ParserEmpty;
 282:../libdaisy/src/hid/midi.h ****                     event_q_.Write(incoming_message_);
 283:../libdaisy/src/hid/midi.h ****                 }
 284:../libdaisy/src/hid/midi.h ****                 else if(incoming_message_.sysex_message_len < SYSEX_BUFFER_LEN)
 1502              		.loc 7 284 22 view .LVU402
 1503 019e 98F99220 		ldrsb	r2, [r8, #146]
 1504              		.loc 7 284 43 view .LVU403
 1505 01a2 98F89230 		ldrb	r3, [r8, #146]	@ zero_extendqisi2
 1506              		.loc 7 284 22 view .LVU404
 1507 01a6 002A     		cmp	r2, #0
 1508 01a8 E5DB     		blt	.L48
 285:../libdaisy/src/hid/midi.h ****                 {
 286:../libdaisy/src/hid/midi.h ****                     incoming_message_
 1509              		.loc 7 286 21 view .LVU405
 1510 01aa 08EB0302 		add	r2, r8, r3
 287:../libdaisy/src/hid/midi.h ****                         .sysex_data[incoming_message_.sysex_message_len]
 288:../libdaisy/src/hid/midi.h ****                         = byte;
 289:../libdaisy/src/hid/midi.h ****                     incoming_message_.sysex_message_len++;
 1511              		.loc 7 289 21 view .LVU406
 1512 01ae 0133     		adds	r3, r3, #1
 286:../libdaisy/src/hid/midi.h ****                         .sysex_data[incoming_message_.sysex_message_len]
 1513              		.loc 7 286 21 view .LVU407
 1514 01b0 9074     		strb	r0, [r2, #18]
 1515              	.LBE681:
 1516              	.LBE680:
 1517              	.LBB713:
 1518              	.LBB674:
  62:../libdaisy/src/hid/midi.h ****     inline uint8_t Rx() { return uart_.PopRx(); }
 1519              		.loc 7 62 54 view .LVU408
 1520 01b2 4E48     		ldr	r0, .L114+12
 1521              	.LVL88:
  62:../libdaisy/src/hid/midi.h ****     inline uint8_t Rx() { return uart_.PopRx(); }
 1522              		.loc 7 62 54 view .LVU409
 1523              	.LBE674:
 1524              	.LBE713:
 1525              	.LBB714:
 1526              	.LBB710:
 1527              		.loc 7 289 21 view .LVU410
 1528 01b4 88F89230 		strb	r3, [r8, #146]
 1529              	.LVL89:
 1530              		.loc 7 289 21 view .LVU411
 1531              	.LBE710:
 1532              	.LBE714:
ARM GAS  /var/folders/g8/1wk0j7gx1n5fw296n3mf_1g40000gn/T//cczcQ1mS.s 			page 60


 114:../libdaisy/src/hid/midi.h ****         {
 1533              		.loc 7 114 9 is_stmt 1 view .LVU412
 1534              	.LBB715:
  62:../libdaisy/src/hid/midi.h ****     inline uint8_t Rx() { return uart_.PopRx(); }
 1535              		.loc 7 62 20 view .LVU413
 1536              	.LBB675:
  62:../libdaisy/src/hid/midi.h ****     inline uint8_t Rx() { return uart_.PopRx(); }
 1537              		.loc 7 62 33 view .LVU414
  62:../libdaisy/src/hid/midi.h ****     inline uint8_t Rx() { return uart_.PopRx(); }
 1538              		.loc 7 62 54 is_stmt 0 view .LVU415
 1539 01b8 FFF7FEFF 		bl	_ZN5daisy11UartHandler8ReadableEv
 1540              	.LVL90:
  62:../libdaisy/src/hid/midi.h ****     inline uint8_t Rx() { return uart_.PopRx(); }
 1541              		.loc 7 62 54 view .LVU416
 1542              	.LBE675:
 1543              	.LBE715:
 114:../libdaisy/src/hid/midi.h ****         {
 1544              		.loc 7 114 9 view .LVU417
 1545 01bc 0028     		cmp	r0, #0
 1546 01be DED1     		bne	.L110
 1547              	.L50:
 1548              	.LVL91:
 1549              	.LBB716:
 1550              	.LBI716:
  64:../libdaisy/src/hid/midi.h ****     inline void    FlushRx() { uart_.FlushRx(); }
 1551              		.loc 7 64 20 is_stmt 1 view .LVU418
 1552              	.LBB717:
  64:../libdaisy/src/hid/midi.h ****     inline void    FlushRx() { uart_.FlushRx(); }
 1553              		.loc 7 64 33 view .LVU419
  64:../libdaisy/src/hid/midi.h ****     inline void    FlushRx() { uart_.FlushRx(); }
 1554              		.loc 7 64 54 is_stmt 0 view .LVU420
 1555 01c0 4A48     		ldr	r0, .L114+12
 1556              	.LVL92:
  64:../libdaisy/src/hid/midi.h ****     inline void    FlushRx() { uart_.FlushRx(); }
 1557              		.loc 7 64 54 view .LVU421
 1558 01c2 FFF7FEFF 		bl	_ZN5daisy11UartHandler8RxActiveEv
 1559              	.LVL93:
  64:../libdaisy/src/hid/midi.h ****     inline void    FlushRx() { uart_.FlushRx(); }
 1560              		.loc 7 64 54 view .LVU422
 1561              	.LBE717:
 1562              	.LBE716:
 123:../libdaisy/src/hid/midi.h ****         {
 1563              		.loc 7 123 9 view .LVU423
 1564 01c6 0346     		mov	r3, r0
 1565 01c8 0028     		cmp	r0, #0
 1566 01ca 00F00E81 		beq	.L111
 1567              	.LVL94:
 1568              	.L72:
 123:../libdaisy/src/hid/midi.h ****         {
 1569              		.loc 7 123 9 view .LVU424
 1570              	.LBE671:
 1571              	.LBE670:
 227:pluck.cpp     ****         while(midi.HasEvents())
 1572              		.loc 8 227 9 is_stmt 1 view .LVU425
 1573              		.loc 8 227 29 view .LVU426
 1574              	.LBB729:
 1575              	.LBI729:
ARM GAS  /var/folders/g8/1wk0j7gx1n5fw296n3mf_1g40000gn/T//cczcQ1mS.s 			page 61


 134:../libdaisy/src/hid/midi.h **** 
 1576              		.loc 7 134 10 view .LVU427
 1577              	.LBB730:
 1578              	.LBI730:
  25:../libdaisy/src/util/ringbuffer.h **** 
  26:../libdaisy/src/util/ringbuffer.h ****     /** \return The total size of the ring buffer */
  27:../libdaisy/src/util/ringbuffer.h ****     inline size_t capacity() const { return size; }
  28:../libdaisy/src/util/ringbuffer.h **** 
  29:../libdaisy/src/util/ringbuffer.h ****     /** \return the number of samples that can be written to ring buffer without overwriting unread
  30:../libdaisy/src/util/ringbuffer.h ****     inline size_t writable() const
  31:../libdaisy/src/util/ringbuffer.h ****     {
  32:../libdaisy/src/util/ringbuffer.h ****         return (read_ptr_ - write_ptr_ - 1) % size;
  33:../libdaisy/src/util/ringbuffer.h ****     }
  34:../libdaisy/src/util/ringbuffer.h **** 
  35:../libdaisy/src/util/ringbuffer.h ****     /** \return number of unread elements in ring buffer */
  36:../libdaisy/src/util/ringbuffer.h ****     inline size_t readable() const { return (write_ptr_ - read_ptr_) % size; }
 1579              		.loc 15 36 19 view .LVU428
 1580              	.LBB731:
 1581              		.loc 15 36 46 is_stmt 0 view .LVU429
 1582 01ce 2B68     		ldr	r3, [r5]
 1583              		.loc 15 36 59 view .LVU430
 1584 01d0 2268     		ldr	r2, [r4]
 1585              	.LVL95:
 1586              		.loc 15 36 57 view .LVU431
 1587 01d2 9B1A     		subs	r3, r3, r2
 1588              	.LBE731:
 1589              	.LBE730:
 1590              	.LBE729:
 1591              		.loc 8 227 29 view .LVU432
 1592 01d4 13F0FF0F 		tst	r3, #255
 1593 01d8 CAD0     		beq	.L74
 1594              	.L75:
 1595              	.LBB733:
 1596              	.LBB734:
 1597              	.LBB735:
  37:../libdaisy/src/util/ringbuffer.h **** 
  38:../libdaisy/src/util/ringbuffer.h ****     /** \returns True, if the buffer is empty. */
  39:../libdaisy/src/util/ringbuffer.h ****     inline bool isEmpty() const { return write_ptr_ == read_ptr_; }
  40:../libdaisy/src/util/ringbuffer.h **** 
  41:../libdaisy/src/util/ringbuffer.h ****     /** Writes the value to the next available position in the ring buffer
  42:../libdaisy/src/util/ringbuffer.h ****     \param v Value to write
  43:../libdaisy/src/util/ringbuffer.h ****     */
  44:../libdaisy/src/util/ringbuffer.h ****     inline void Write(T v)
  45:../libdaisy/src/util/ringbuffer.h ****     {
  46:../libdaisy/src/util/ringbuffer.h ****         while(!writable())
  47:../libdaisy/src/util/ringbuffer.h ****             ;
  48:../libdaisy/src/util/ringbuffer.h ****         Overwrite(v);
  49:../libdaisy/src/util/ringbuffer.h ****     }
  50:../libdaisy/src/util/ringbuffer.h **** 
  51:../libdaisy/src/util/ringbuffer.h ****     /** Writes the new element to the ring buffer, overwriting unread data if necessary. 
  52:../libdaisy/src/util/ringbuffer.h ****     \param v Value to overwrite
  53:../libdaisy/src/util/ringbuffer.h ****      */
  54:../libdaisy/src/util/ringbuffer.h ****     inline void Overwrite(T v)
  55:../libdaisy/src/util/ringbuffer.h ****     {
  56:../libdaisy/src/util/ringbuffer.h ****         size_t w   = write_ptr_;
  57:../libdaisy/src/util/ringbuffer.h ****         buffer_[w] = v;
  58:../libdaisy/src/util/ringbuffer.h ****         write_ptr_ = (w + 1) % size;
ARM GAS  /var/folders/g8/1wk0j7gx1n5fw296n3mf_1g40000gn/T//cczcQ1mS.s 			page 62


  59:../libdaisy/src/util/ringbuffer.h ****     }
  60:../libdaisy/src/util/ringbuffer.h **** 
  61:../libdaisy/src/util/ringbuffer.h ****     /** Reads the first available element from the ring buffer
  62:../libdaisy/src/util/ringbuffer.h ****     \return read value
  63:../libdaisy/src/util/ringbuffer.h ****      */
  64:../libdaisy/src/util/ringbuffer.h ****     inline T Read()
  65:../libdaisy/src/util/ringbuffer.h ****     {
  66:../libdaisy/src/util/ringbuffer.h ****         while(!readable())
 1598              		.loc 15 66 15 is_stmt 1 view .LVU433
 1599              	.LVL96:
 1600              	.LBB736:
 1601              	.LBI736:
  36:../libdaisy/src/util/ringbuffer.h **** 
 1602              		.loc 15 36 19 view .LVU434
 1603              	.LBB737:
  36:../libdaisy/src/util/ringbuffer.h **** 
 1604              		.loc 15 36 46 is_stmt 0 view .LVU435
 1605 01da 2B68     		ldr	r3, [r5]
  36:../libdaisy/src/util/ringbuffer.h **** 
 1606              		.loc 15 36 59 view .LVU436
 1607 01dc 2268     		ldr	r2, [r4]
  36:../libdaisy/src/util/ringbuffer.h **** 
 1608              		.loc 15 36 57 view .LVU437
 1609 01de 9B1A     		subs	r3, r3, r2
 1610              	.LBE737:
 1611              	.LBE736:
 1612              		.loc 15 66 15 view .LVU438
 1613 01e0 13F0FF0F 		tst	r3, #255
 1614 01e4 F9D0     		beq	.L75
 1615              	.LVL97:
 1616              	.LBB738:
 1617              	.LBI738:
  67:../libdaisy/src/util/ringbuffer.h ****             ;
  68:../libdaisy/src/util/ringbuffer.h ****         return ImmediateRead();
  69:../libdaisy/src/util/ringbuffer.h ****     }
  70:../libdaisy/src/util/ringbuffer.h **** 
  71:../libdaisy/src/util/ringbuffer.h ****     /** Reads next element from ring buffer immediately
  72:../libdaisy/src/util/ringbuffer.h ****     \return read value
  73:../libdaisy/src/util/ringbuffer.h ****      */
  74:../libdaisy/src/util/ringbuffer.h ****     inline T ImmediateRead()
 1618              		.loc 15 74 14 is_stmt 1 view .LVU439
 1619              	.LBB739:
  75:../libdaisy/src/util/ringbuffer.h ****     {
  76:../libdaisy/src/util/ringbuffer.h ****         size_t r      = read_ptr_;
 1620              		.loc 15 76 16 is_stmt 0 view .LVU440
 1621 01e6 2768     		ldr	r7, [r4]
 1622              	.LVL98:
  77:../libdaisy/src/util/ringbuffer.h ****         T      result = buffer_[r];
 1623              		.loc 15 77 16 view .LVU441
 1624 01e8 9022     		movs	r2, #144
 1625              	.LVL99:
 1626              		.loc 15 77 16 view .LVU442
 1627 01ea 3046     		mov	r0, r6
 1628 01ec 07EBC701 		add	r1, r7, r7, lsl #3
  78:../libdaisy/src/util/ringbuffer.h ****         read_ptr_     = (r + 1) % size;
 1629              		.loc 15 78 28 view .LVU443
 1630 01f0 0137     		adds	r7, r7, #1
ARM GAS  /var/folders/g8/1wk0j7gx1n5fw296n3mf_1g40000gn/T//cczcQ1mS.s 			page 63


 1631              	.LVL100:
  77:../libdaisy/src/util/ringbuffer.h ****         T      result = buffer_[r];
 1632              		.loc 15 77 16 view .LVU444
 1633 01f2 08EB0111 		add	r1, r8, r1, lsl #4
 1634              		.loc 15 78 33 view .LVU445
 1635 01f6 FFB2     		uxtb	r7, r7
  77:../libdaisy/src/util/ringbuffer.h ****         T      result = buffer_[r];
 1636              		.loc 15 77 16 view .LVU446
 1637 01f8 9831     		adds	r1, r1, #152
 1638 01fa FFF7FEFF 		bl	memcpy
 1639              	.LVL101:
  77:../libdaisy/src/util/ringbuffer.h ****         T      result = buffer_[r];
 1640              		.loc 15 77 16 view .LVU447
 1641              	.LBE739:
 1642              	.LBE738:
 1643              	.LBE735:
 1644              	.LBE734:
 1645              	.LBE733:
 228:pluck.cpp     ****         {
 229:pluck.cpp     ****             HandleMidiMessage(midi.PopEvent());
 1646              		.loc 8 229 30 view .LVU448
 1647 01fe 26A9     		add	r1, sp, #152
 1648 0200 8022     		movs	r2, #128
 1649 0202 6846     		mov	r0, sp
 1650              	.LBB744:
 1651              	.LBB743:
 1652              	.LBB742:
 1653              	.LBB741:
 1654              	.LBB740:
 1655              		.loc 15 78 9 view .LVU449
 1656 0204 2760     		str	r7, [r4]
 1657              		.loc 15 78 9 view .LVU450
 1658              	.LBE740:
 1659              	.LBE741:
 1660              	.LBE742:
 1661              	.LBE743:
 1662              	.LBE744:
 1663              		.loc 8 229 30 view .LVU451
 1664 0206 FFF7FEFF 		bl	memcpy
 1665              	.LVL102:
 1666 020a 96E80F00 		ldm	r6, {r0, r1, r2, r3}
 1667 020e FFF7FEFF 		bl	_Z17HandleMidiMessageN5daisy9MidiEventE
 1668              	.LVL103:
 227:pluck.cpp     ****         {
 1669              		.loc 8 227 9 is_stmt 1 view .LVU452
 227:pluck.cpp     ****         {
 1670              		.loc 8 227 29 view .LVU453
 1671              	.LBB745:
 134:../libdaisy/src/hid/midi.h **** 
 1672              		.loc 7 134 10 view .LVU454
 1673              	.LBB732:
  36:../libdaisy/src/util/ringbuffer.h **** 
 1674              		.loc 15 36 19 view .LVU455
 1675 0212 DCE7     		b	.L72
 1676              	.LVL104:
 1677              	.L53:
  36:../libdaisy/src/util/ringbuffer.h **** 
ARM GAS  /var/folders/g8/1wk0j7gx1n5fw296n3mf_1g40000gn/T//cczcQ1mS.s 			page 64


 1678              		.loc 15 36 19 is_stmt 0 view .LVU456
 1679              	.LBE732:
 1680              	.LBE745:
 1681              	.LBB746:
 1682              	.LBB728:
 1683              	.LBB718:
 1684              	.LBB711:
 259:../libdaisy/src/hid/midi.h ****                 {
 1685              		.loc 7 259 26 view .LVU457
 1686 0214 9BF80030 		ldrb	r3, [fp]	@ zero_extendqisi2
 259:../libdaisy/src/hid/midi.h ****                 {
 1687              		.loc 7 259 17 view .LVU458
 1688 0218 0340     		ands	r3, r0, r3
 1689 021a 2BD1     		bne	.L63
 261:../libdaisy/src/hid/midi.h **** 
 1690              		.loc 7 261 54 view .LVU459
 1691 021c 3F4A     		ldr	r2, .L114+60
 264:../libdaisy/src/hid/midi.h ****                        && incoming_message_.data[1] == 0)
 1692              		.loc 7 264 21 view .LVU460
 1693 021e 4049     		ldr	r1, .L114+64
 261:../libdaisy/src/hid/midi.h **** 
 1694              		.loc 7 261 54 view .LVU461
 1695 0220 1278     		ldrb	r2, [r2]	@ zero_extendqisi2
 264:../libdaisy/src/hid/midi.h ****                        && incoming_message_.data[1] == 0)
 1696              		.loc 7 264 21 view .LVU462
 1697 0222 0978     		ldrb	r1, [r1]	@ zero_extendqisi2
 261:../libdaisy/src/hid/midi.h **** 
 1698              		.loc 7 261 54 view .LVU463
 1699 0224 1040     		ands	r0, r0, r2
 1700              	.LVL105:
 265:../libdaisy/src/hid/midi.h ****                     {
 1701              		.loc 7 265 24 view .LVU464
 1702 0226 0129     		cmp	r1, #1
 261:../libdaisy/src/hid/midi.h **** 
 1703              		.loc 7 261 21 view .LVU465
 1704 0228 88F81100 		strb	r0, [r8, #17]
 265:../libdaisy/src/hid/midi.h ****                     {
 1705              		.loc 7 265 24 view .LVU466
 1706 022c 02D1     		bne	.L68
 1707 022e 0028     		cmp	r0, #0
 1708 0230 00F00C81 		beq	.L112
 1709              	.L68:
 1710              	.LVL106:
 265:../libdaisy/src/hid/midi.h ****                     {
 1711              		.loc 7 265 24 view .LVU467
 1712 0234 9022     		movs	r2, #144
 1713 0236 3B49     		ldr	r1, .L114+68
 1714 0238 46A8     		add	r0, sp, #280
 1715 023a FFF7FEFF 		bl	memcpy
 1716              	.LVL107:
 1717              	.LBB682:
 1718              	.LBI682:
  44:../libdaisy/src/util/ringbuffer.h ****     {
 1719              		.loc 15 44 17 is_stmt 1 view .LVU468
 1720              	.L69:
 1721              	.LBB683:
  46:../libdaisy/src/util/ringbuffer.h ****             ;
ARM GAS  /var/folders/g8/1wk0j7gx1n5fw296n3mf_1g40000gn/T//cczcQ1mS.s 			page 65


 1722              		.loc 15 46 15 view .LVU469
 1723              	.LBB684:
 1724              	.LBI684:
  30:../libdaisy/src/util/ringbuffer.h ****     {
 1725              		.loc 15 30 19 view .LVU470
 1726              	.LBB685:
  32:../libdaisy/src/util/ringbuffer.h ****     }
 1727              		.loc 15 32 17 is_stmt 0 view .LVU471
 1728 023e 2368     		ldr	r3, [r4]
  32:../libdaisy/src/util/ringbuffer.h ****     }
 1729              		.loc 15 32 29 view .LVU472
 1730 0240 2A68     		ldr	r2, [r5]
 1731              	.LVL108:
  32:../libdaisy/src/util/ringbuffer.h ****     }
 1732              		.loc 15 32 40 view .LVU473
 1733 0242 013B     		subs	r3, r3, #1
 1734 0244 9B1A     		subs	r3, r3, r2
 1735              	.LBE685:
 1736              	.LBE684:
  46:../libdaisy/src/util/ringbuffer.h ****             ;
 1737              		.loc 15 46 15 view .LVU474
 1738 0246 13F0FF0F 		tst	r3, #255
 1739 024a F8D0     		beq	.L69
 1740              	.LVL109:
  46:../libdaisy/src/util/ringbuffer.h ****             ;
 1741              		.loc 15 46 15 view .LVU475
 1742 024c 9022     		movs	r2, #144
 1743 024e 46A9     		add	r1, sp, #280
 1744 0250 6AA8     		add	r0, sp, #424
 1745 0252 FFF7FEFF 		bl	memcpy
 1746              	.LVL110:
 1747              	.LBB686:
 1748              	.LBI686:
  54:../libdaisy/src/util/ringbuffer.h ****     {
 1749              		.loc 15 54 17 is_stmt 1 view .LVU476
 1750              	.LBB687:
  56:../libdaisy/src/util/ringbuffer.h ****         buffer_[w] = v;
 1751              		.loc 15 56 16 is_stmt 0 view .LVU477
 1752 0256 D5F80090 		ldr	r9, [r5]
 1753              	.LVL111:
  57:../libdaisy/src/util/ringbuffer.h ****         write_ptr_ = (w + 1) % size;
 1754              		.loc 15 57 9 view .LVU478
 1755 025a 9022     		movs	r2, #144
 1756 025c 6AA9     		add	r1, sp, #424
 1757 025e 09EBC900 		add	r0, r9, r9, lsl #3
 1758 0262 08EB0010 		add	r0, r8, r0, lsl #4
 1759 0266 9830     		adds	r0, r0, #152
 1760 0268 FFF7FEFF 		bl	memcpy
 1761              	.LVL112:
  58:../libdaisy/src/util/ringbuffer.h ****     }
 1762              		.loc 15 58 25 view .LVU479
 1763 026c 09F10103 		add	r3, r9, #1
  58:../libdaisy/src/util/ringbuffer.h ****     }
 1764              		.loc 15 58 30 view .LVU480
 1765 0270 DBB2     		uxtb	r3, r3
  58:../libdaisy/src/util/ringbuffer.h ****     }
 1766              		.loc 15 58 9 view .LVU481
ARM GAS  /var/folders/g8/1wk0j7gx1n5fw296n3mf_1g40000gn/T//cczcQ1mS.s 			page 66


 1767 0272 2B60     		str	r3, [r5]
 1768              	.LVL113:
 1769              	.L63:
  58:../libdaisy/src/util/ringbuffer.h ****     }
 1770              		.loc 15 58 9 view .LVU482
 1771              	.LBE687:
 1772              	.LBE686:
 1773              	.LBE683:
 1774              	.LBE682:
 255:../libdaisy/src/hid/midi.h ****                 }
 1775              		.loc 7 255 21 view .LVU483
 1776 0274 0023     		movs	r3, #0
 1777 0276 88F80430 		strb	r3, [r8, #4]
 1778 027a 7CE7     		b	.L48
 1779              	.LVL114:
 1780              	.L55:
 162:../libdaisy/src/hid/midi.h ****                 {
 1781              		.loc 7 162 25 view .LVU484
 1782 027c 9BF80030 		ldrb	r3, [fp]	@ zero_extendqisi2
 162:../libdaisy/src/hid/midi.h ****                 {
 1783              		.loc 7 162 17 view .LVU485
 1784 0280 1842     		tst	r0, r3
 1785 0282 00F0A580 		beq	.L56
 167:../libdaisy/src/hid/midi.h **** 
 1786              		.loc 7 167 31 view .LVU486
 1787 0286 284B     		ldr	r3, .L114+72
 165:../libdaisy/src/hid/midi.h ****                     incoming_message_.type    = static_cast<MidiMessageType>(
 1788              		.loc 7 165 54 view .LVU487
 1789 0288 284A     		ldr	r2, .L114+76
 167:../libdaisy/src/hid/midi.h **** 
 1790              		.loc 7 167 31 view .LVU488
 1791 028a 1B78     		ldrb	r3, [r3]	@ zero_extendqisi2
 165:../libdaisy/src/hid/midi.h ****                     incoming_message_.type    = static_cast<MidiMessageType>(
 1792              		.loc 7 165 54 view .LVU489
 1793 028c 1278     		ldrb	r2, [r2]	@ zero_extendqisi2
 167:../libdaisy/src/hid/midi.h **** 
 1794              		.loc 7 167 31 view .LVU490
 1795 028e 0340     		ands	r3, r3, r0
 165:../libdaisy/src/hid/midi.h ****                     incoming_message_.type    = static_cast<MidiMessageType>(
 1796              		.loc 7 165 54 view .LVU491
 1797 0290 0240     		ands	r2, r2, r0
 167:../libdaisy/src/hid/midi.h **** 
 1798              		.loc 7 167 47 view .LVU492
 1799 0292 1909     		lsrs	r1, r3, #4
 170:../libdaisy/src/hid/midi.h ****                     {
 1800              		.loc 7 170 21 view .LVU493
 1801 0294 9F2B     		cmp	r3, #159
 167:../libdaisy/src/hid/midi.h **** 
 1802              		.loc 7 167 47 view .LVU494
 1803 0296 4FEA231C 		asr	ip, r3, #4
 165:../libdaisy/src/hid/midi.h ****                     incoming_message_.type    = static_cast<MidiMessageType>(
 1804              		.loc 7 165 54 view .LVU495
 1805 029a C8F80C20 		str	r2, [r8, #12]
 166:../libdaisy/src/hid/midi.h ****                         (byte & kMessageMask) >> 4);
 1806              		.loc 7 166 21 view .LVU496
 1807 029e 88F80810 		strb	r1, [r8, #8]
 170:../libdaisy/src/hid/midi.h ****                     {
ARM GAS  /var/folders/g8/1wk0j7gx1n5fw296n3mf_1g40000gn/T//cczcQ1mS.s 			page 67


 1808              		.loc 7 170 21 view .LVU497
 1809 02a2 3FF668AF 		bhi	.L48
 172:../libdaisy/src/hid/midi.h ****                         // Mark this status byte as running_status
 1810              		.loc 7 172 25 view .LVU498
 1811 02a6 0123     		movs	r3, #1
 174:../libdaisy/src/hid/midi.h **** 
 1812              		.loc 7 174 25 view .LVU499
 1813 02a8 1D4A     		ldr	r2, .L114+64
 176:../libdaisy/src/hid/midi.h ****                         {
 1814              		.loc 7 176 25 view .LVU500
 1815 02aa BCF1070F 		cmp	ip, #7
 174:../libdaisy/src/hid/midi.h **** 
 1816              		.loc 7 174 25 view .LVU501
 1817 02ae 1170     		strb	r1, [r2]
 172:../libdaisy/src/hid/midi.h ****                         // Mark this status byte as running_status
 1818              		.loc 7 172 25 view .LVU502
 1819 02b0 88F80430 		strb	r3, [r8, #4]
 176:../libdaisy/src/hid/midi.h ****                         {
 1820              		.loc 7 176 25 view .LVU503
 1821 02b4 7FF45FAF 		bne	.L48
 178:../libdaisy/src/hid/midi.h ****                             //system real time = 1111 1xxx
 1822              		.loc 7 178 29 view .LVU504
 1823 02b8 0022     		movs	r2, #0
 180:../libdaisy/src/hid/midi.h ****                             {
 1824              		.loc 7 180 29 view .LVU505
 1825 02ba 10F0080C 		ands	ip, r0, #8
 178:../libdaisy/src/hid/midi.h ****                             //system real time = 1111 1xxx
 1826              		.loc 7 178 29 view .LVU506
 1827 02be C8F80C20 		str	r2, [r8, #12]
 180:../libdaisy/src/hid/midi.h ****                             {
 1828              		.loc 7 180 29 view .LVU507
 1829 02c2 40F0DA80 		bne	.L113
 197:../libdaisy/src/hid/midi.h ****                                 //sysex
 1830              		.loc 7 197 69 view .LVU508
 1831 02c6 00F00703 		and	r3, r0, #7
 195:../libdaisy/src/hid/midi.h ****                                     = static_cast<SystemCommonType>(byte
 1832              		.loc 7 195 33 view .LVU509
 1833 02ca 88F89330 		strb	r3, [r8, #147]
 199:../libdaisy/src/hid/midi.h ****                                 {
 1834              		.loc 7 199 33 view .LVU510
 1835 02ce 002B     		cmp	r3, #0
 1836 02d0 40F0C180 		bne	.L61
 201:../libdaisy/src/hid/midi.h ****                                     incoming_message_.sysex_message_len = 0;
 1837              		.loc 7 201 37 view .LVU511
 1838 02d4 0322     		movs	r2, #3
 202:../libdaisy/src/hid/midi.h ****                                 }
 1839              		.loc 7 202 37 view .LVU512
 1840 02d6 88F89230 		strb	r3, [r8, #146]
 201:../libdaisy/src/hid/midi.h ****                                     incoming_message_.sysex_message_len = 0;
 1841              		.loc 7 201 37 view .LVU513
 1842 02da 88F80420 		strb	r2, [r8, #4]
 1843 02de 4AE7     		b	.L48
 1844              	.L115:
 1845              		.align	2
 1846              	.L114:
 1847 02e0 00000000 		.word	.LANCHOR0
 1848 02e4 01070106 		.word	100730625
ARM GAS  /var/folders/g8/1wk0j7gx1n5fw296n3mf_1g40000gn/T//cczcQ1mS.s 			page 68


 1849 02e8 00000000 		.word	_ZL4verb
 1850 02ec B0900000 		.word	midi+37040
 1851 02f0 28000000 		.word	_ZL13voice_handler+40
 1852 02f4 3333733F 		.word	1064514355
 1853 02f8 00409C45 		.word	1167867904
 1854 02fc 0000C842 		.word	1120403456
 1855 0300 AE47813F 		.word	1065437102
 1856 0304 0AD7A33B 		.word	1000593162
 1857 0308 CDCC4C3E 		.word	1045220557
 1858 030c 0080BB45 		.word	1169915904
 1859 0310 9A99193F 		.word	1058642330
 1860 0314 CDCC4C3F 		.word	1061997773
 1861 0318 00000000 		.word	_ZL13AudioCallbackPKPKfPPfj
 1862 031c B6900000 		.word	midi+37046
 1863 0320 A4900000 		.word	midi+37028
 1864 0324 08000000 		.word	midi+8
 1865 0328 B5900000 		.word	midi+37045
 1866 032c B8900000 		.word	midi+37048
 1867 0330 00000000 		.word	midi
 1868 0334 A0900000 		.word	midi+37024
 1869              	.L54:
 224:../libdaisy/src/hid/midi.h ****                 {
 1870              		.loc 7 224 26 view .LVU514
 1871 0338 9BF80030 		ldrb	r3, [fp]	@ zero_extendqisi2
 224:../libdaisy/src/hid/midi.h ****                 {
 1872              		.loc 7 224 17 view .LVU515
 1873 033c 1842     		tst	r0, r3
 1874 033e 99D1     		bne	.L63
 226:../libdaisy/src/hid/midi.h ****                     if(running_status_ == ChannelPressure
 1875              		.loc 7 226 54 view .LVU516
 1876 0340 5B4B     		ldr	r3, .L116
 1877 0342 1A78     		ldrb	r2, [r3]	@ zero_extendqisi2
 227:../libdaisy/src/hid/midi.h ****                        || running_status_ == ProgramChange
 1878              		.loc 7 227 24 view .LVU517
 1879 0344 123B     		subs	r3, r3, #18
 1880 0346 1B78     		ldrb	r3, [r3]	@ zero_extendqisi2
 226:../libdaisy/src/hid/midi.h ****                     if(running_status_ == ChannelPressure
 1881              		.loc 7 226 54 view .LVU518
 1882 0348 00EA0209 		and	r9, r0, r2
 227:../libdaisy/src/hid/midi.h ****                        || running_status_ == ProgramChange
 1883              		.loc 7 227 21 view .LVU519
 1884 034c 1A1F     		subs	r2, r3, #4
 227:../libdaisy/src/hid/midi.h ****                        || running_status_ == ProgramChange
 1885              		.loc 7 227 24 view .LVU520
 1886 034e 2093     		str	r3, [sp, #128]
 226:../libdaisy/src/hid/midi.h ****                     if(running_status_ == ChannelPressure
 1887              		.loc 7 226 21 view .LVU521
 1888 0350 88F81090 		strb	r9, [r8, #16]
 227:../libdaisy/src/hid/midi.h ****                        || running_status_ == ProgramChange
 1889              		.loc 7 227 21 view .LVU522
 1890 0354 012A     		cmp	r2, #1
 1891 0356 05D9     		bls	.L64
 229:../libdaisy/src/hid/midi.h ****                        || incoming_message_.sc_type == SongSelect)
 1892              		.loc 7 229 24 view .LVU523
 1893 0358 98F89320 		ldrb	r2, [r8, #147]	@ zero_extendqisi2
 230:../libdaisy/src/hid/midi.h ****                     {
 1894              		.loc 7 230 24 view .LVU524
ARM GAS  /var/folders/g8/1wk0j7gx1n5fw296n3mf_1g40000gn/T//cczcQ1mS.s 			page 69


 1895 035c 02F0FD02 		and	r2, r2, #253
 1896 0360 012A     		cmp	r2, #1
 1897 0362 6FD1     		bne	.L65
 1898              	.L64:
 233:../libdaisy/src/hid/midi.h ****                         event_q_.Write(incoming_message_);
 1899              		.loc 7 233 25 view .LVU525
 1900 0364 4FF0000C 		mov	ip, #0
 1901 0368 9022     		movs	r2, #144
 1902 036a 5249     		ldr	r1, .L116+4
 1903 036c 46A8     		add	r0, sp, #280
 1904              	.LVL115:
 233:../libdaisy/src/hid/midi.h ****                         event_q_.Write(incoming_message_);
 1905              		.loc 7 233 25 view .LVU526
 1906 036e 88F804C0 		strb	ip, [r8, #4]
 1907              	.LVL116:
 233:../libdaisy/src/hid/midi.h ****                         event_q_.Write(incoming_message_);
 1908              		.loc 7 233 25 view .LVU527
 1909 0372 FFF7FEFF 		bl	memcpy
 1910              	.LVL117:
 1911              	.LBB688:
 1912              	.LBI688:
  44:../libdaisy/src/util/ringbuffer.h ****     {
 1913              		.loc 15 44 17 is_stmt 1 view .LVU528
 1914              	.L66:
 1915              	.LBB689:
  46:../libdaisy/src/util/ringbuffer.h ****             ;
 1916              		.loc 15 46 15 view .LVU529
 1917              	.LBB690:
 1918              	.LBI690:
  30:../libdaisy/src/util/ringbuffer.h ****     {
 1919              		.loc 15 30 19 view .LVU530
 1920              	.LBB691:
  32:../libdaisy/src/util/ringbuffer.h ****     }
 1921              		.loc 15 32 17 is_stmt 0 view .LVU531
 1922 0376 2368     		ldr	r3, [r4]
  32:../libdaisy/src/util/ringbuffer.h ****     }
 1923              		.loc 15 32 29 view .LVU532
 1924 0378 2A68     		ldr	r2, [r5]
 1925              	.LVL118:
  32:../libdaisy/src/util/ringbuffer.h ****     }
 1926              		.loc 15 32 40 view .LVU533
 1927 037a 013B     		subs	r3, r3, #1
 1928 037c 9B1A     		subs	r3, r3, r2
 1929              	.LBE691:
 1930              	.LBE690:
  46:../libdaisy/src/util/ringbuffer.h ****             ;
 1931              		.loc 15 46 15 view .LVU534
 1932 037e 13F0FF0F 		tst	r3, #255
 1933 0382 F8D0     		beq	.L66
 1934              	.LVL119:
  46:../libdaisy/src/util/ringbuffer.h ****             ;
 1935              		.loc 15 46 15 view .LVU535
 1936 0384 9022     		movs	r2, #144
 1937 0386 46A9     		add	r1, sp, #280
 1938 0388 6AA8     		add	r0, sp, #424
 1939 038a FFF7FEFF 		bl	memcpy
 1940              	.LVL120:
ARM GAS  /var/folders/g8/1wk0j7gx1n5fw296n3mf_1g40000gn/T//cczcQ1mS.s 			page 70


 1941              	.LBB692:
 1942              	.LBI692:
  54:../libdaisy/src/util/ringbuffer.h ****     {
 1943              		.loc 15 54 17 is_stmt 1 view .LVU536
 1944              	.LBB693:
  56:../libdaisy/src/util/ringbuffer.h ****         buffer_[w] = v;
 1945              		.loc 15 56 16 is_stmt 0 view .LVU537
 1946 038e 2B68     		ldr	r3, [r5]
 1947              	.LVL121:
  57:../libdaisy/src/util/ringbuffer.h ****         write_ptr_ = (w + 1) % size;
 1948              		.loc 15 57 9 view .LVU538
 1949 0390 9022     		movs	r2, #144
 1950 0392 6AA9     		add	r1, sp, #424
 1951 0394 03EBC300 		add	r0, r3, r3, lsl #3
 1952 0398 2193     		str	r3, [sp, #132]
 1953 039a 08EB0010 		add	r0, r8, r0, lsl #4
 1954 039e 9830     		adds	r0, r0, #152
 1955 03a0 FFF7FEFF 		bl	memcpy
 1956              	.LVL122:
  58:../libdaisy/src/util/ringbuffer.h ****     }
 1957              		.loc 15 58 25 view .LVU539
 1958 03a4 219B     		ldr	r3, [sp, #132]
 1959 03a6 5A1C     		adds	r2, r3, #1
  58:../libdaisy/src/util/ringbuffer.h ****     }
 1960              		.loc 15 58 30 view .LVU540
 1961 03a8 D2B2     		uxtb	r2, r2
  58:../libdaisy/src/util/ringbuffer.h ****     }
 1962              		.loc 15 58 9 view .LVU541
 1963 03aa 2A60     		str	r2, [r5]
 1964              	.LVL123:
 1965              	.L67:
  58:../libdaisy/src/util/ringbuffer.h ****     }
 1966              		.loc 15 58 9 view .LVU542
 1967              	.LBE693:
 1968              	.LBE692:
 1969              	.LBE689:
 1970              	.LBE688:
 243:../libdaisy/src/hid/midi.h ****                     {
 1971              		.loc 7 243 24 view .LVU543
 1972 03ac 209B     		ldr	r3, [sp, #128]
 1973 03ae 032B     		cmp	r3, #3
 1974 03b0 7FF4E1AE 		bne	.L48
 1975 03b4 B9F1770F 		cmp	r9, #119
 1976 03b8 7FF6DDAE 		bls	.L48
 249:../libdaisy/src/hid/midi.h ****                     }
 1977              		.loc 7 249 59 view .LVU544
 1978 03bc A9F17803 		sub	r3, r9, #120
 245:../libdaisy/src/hid/midi.h ****                         running_status_        = ChannelMode;
 1979              		.loc 7 245 25 view .LVU545
 1980 03c0 0922     		movs	r2, #9
 247:../libdaisy/src/hid/midi.h ****                             = static_cast<ChannelModeType>(
 1981              		.loc 7 247 25 view .LVU546
 1982 03c2 88F89530 		strb	r3, [r8, #149]
 246:../libdaisy/src/hid/midi.h ****                         incoming_message_.cm_type
 1983              		.loc 7 246 25 view .LVU547
 1984 03c6 3C4B     		ldr	r3, .L116+8
 245:../libdaisy/src/hid/midi.h ****                         running_status_        = ChannelMode;
ARM GAS  /var/folders/g8/1wk0j7gx1n5fw296n3mf_1g40000gn/T//cczcQ1mS.s 			page 71


 1985              		.loc 7 245 25 view .LVU548
 1986 03c8 88F80820 		strb	r2, [r8, #8]
 246:../libdaisy/src/hid/midi.h ****                         incoming_message_.cm_type
 1987              		.loc 7 246 25 view .LVU549
 1988 03cc 1A70     		strb	r2, [r3]
 1989 03ce D2E6     		b	.L48
 1990              	.LVL124:
 1991              	.L56:
 219:../libdaisy/src/hid/midi.h ****                     pstate_                   = ParserHasData0;
 1992              		.loc 7 219 54 view .LVU550
 1993 03d0 374B     		ldr	r3, .L116
 220:../libdaisy/src/hid/midi.h ****                 }
 1994              		.loc 7 220 21 view .LVU551
 1995 03d2 0222     		movs	r2, #2
 219:../libdaisy/src/hid/midi.h ****                     pstate_                   = ParserHasData0;
 1996              		.loc 7 219 54 view .LVU552
 1997 03d4 1B78     		ldrb	r3, [r3]	@ zero_extendqisi2
 220:../libdaisy/src/hid/midi.h ****                 }
 1998              		.loc 7 220 21 view .LVU553
 1999 03d6 88F80420 		strb	r2, [r8, #4]
 219:../libdaisy/src/hid/midi.h ****                     pstate_                   = ParserHasData0;
 2000              		.loc 7 219 54 view .LVU554
 2001 03da 1840     		ands	r0, r0, r3
 2002              	.LVL125:
 218:../libdaisy/src/hid/midi.h ****                     incoming_message_.data[0] = byte & kDataByteMask;
 2003              		.loc 7 218 21 view .LVU555
 2004 03dc 364B     		ldr	r3, .L116+8
 2005 03de 1B78     		ldrb	r3, [r3]	@ zero_extendqisi2
 219:../libdaisy/src/hid/midi.h ****                     pstate_                   = ParserHasData0;
 2006              		.loc 7 219 21 view .LVU556
 2007 03e0 88F81000 		strb	r0, [r8, #16]
 218:../libdaisy/src/hid/midi.h ****                     incoming_message_.data[0] = byte & kDataByteMask;
 2008              		.loc 7 218 21 view .LVU557
 2009 03e4 88F80830 		strb	r3, [r8, #8]
 2010 03e8 C5E6     		b	.L48
 2011              	.LVL126:
 2012              	.L111:
 218:../libdaisy/src/hid/midi.h ****                     incoming_message_.data[0] = byte & kDataByteMask;
 2013              		.loc 7 218 21 view .LVU558
 2014              	.LBE711:
 2015              	.LBE718:
 2016              	.LBB719:
 2017              	.LBB720:
  65:../libdaisy/src/hid/midi.h ****     inline void    Tx(uint8_t* buff, size_t size) { uart_.PollTx(buff, size); }
 2018              		.loc 7 65 45 view .LVU559
 2019 03ea 3448     		ldr	r0, .L116+12
 2020              	.LBE720:
 2021              	.LBE719:
 125:../libdaisy/src/hid/midi.h ****             transport_.FlushRx();
 2022              		.loc 7 125 13 view .LVU560
 2023 03ec 88F80430 		strb	r3, [r8, #4]
 2024              	.LVL127:
 2025              	.LBB722:
 2026              	.LBI719:
  65:../libdaisy/src/hid/midi.h ****     inline void    Tx(uint8_t* buff, size_t size) { uart_.PollTx(buff, size); }
 2027              		.loc 7 65 20 is_stmt 1 view .LVU561
 2028              	.LBB721:
ARM GAS  /var/folders/g8/1wk0j7gx1n5fw296n3mf_1g40000gn/T//cczcQ1mS.s 			page 72


  65:../libdaisy/src/hid/midi.h ****     inline void    Tx(uint8_t* buff, size_t size) { uart_.PollTx(buff, size); }
 2029              		.loc 7 65 32 view .LVU562
  65:../libdaisy/src/hid/midi.h ****     inline void    Tx(uint8_t* buff, size_t size) { uart_.PollTx(buff, size); }
 2030              		.loc 7 65 45 is_stmt 0 view .LVU563
 2031 03f0 FFF7FEFF 		bl	_ZN5daisy11UartHandler7FlushRxEv
 2032              	.LVL128:
  65:../libdaisy/src/hid/midi.h ****     inline void    Tx(uint8_t* buff, size_t size) { uart_.PollTx(buff, size); }
 2033              		.loc 7 65 45 view .LVU564
 2034              	.LBE721:
 2035              	.LBE722:
 2036              	.LBB723:
 2037              	.LBI723:
 107:../libdaisy/src/hid/midi.h **** 
 2038              		.loc 7 107 10 is_stmt 1 view .LVU565
 2039              	.LBB724:
 2040              	.LBB725:
 2041              	.LBI725:
  61:../libdaisy/src/hid/midi.h ****     inline size_t  Readable() { return uart_.Readable(); }
 2042              		.loc 7 61 20 view .LVU566
 2043              	.LBB726:
  61:../libdaisy/src/hid/midi.h ****     inline size_t  Readable() { return uart_.Readable(); }
 2044              		.loc 7 61 32 view .LVU567
  61:../libdaisy/src/hid/midi.h ****     inline size_t  Readable() { return uart_.Readable(); }
 2045              		.loc 7 61 45 is_stmt 0 view .LVU568
 2046 03f4 3148     		ldr	r0, .L116+12
 2047              	.LVL129:
  61:../libdaisy/src/hid/midi.h ****     inline size_t  Readable() { return uart_.Readable(); }
 2048              		.loc 7 61 45 view .LVU569
 2049 03f6 FFF7FEFF 		bl	_ZN5daisy11UartHandler7StartRxEv
 2050              	.LVL130:
  61:../libdaisy/src/hid/midi.h ****     inline size_t  Readable() { return uart_.Readable(); }
 2051              		.loc 7 61 45 view .LVU570
 2052              	.LBE726:
 2053              	.LBE725:
 107:../libdaisy/src/hid/midi.h **** 
 2054              		.loc 7 107 49 view .LVU571
 2055 03fa E8E6     		b	.L72
 2056              	.LVL131:
 2057              	.L109:
 107:../libdaisy/src/hid/midi.h **** 
 2058              		.loc 7 107 49 view .LVU572
 2059              	.LBE724:
 2060              	.LBE723:
 2061              	.LBB727:
 2062              	.LBB712:
 281:../libdaisy/src/hid/midi.h ****                     event_q_.Write(incoming_message_);
 2063              		.loc 7 281 21 view .LVU573
 2064 03fc 0023     		movs	r3, #0
 2065 03fe 9022     		movs	r2, #144
 2066 0400 2C49     		ldr	r1, .L116+4
 2067 0402 46A8     		add	r0, sp, #280
 2068              	.LVL132:
 281:../libdaisy/src/hid/midi.h ****                     event_q_.Write(incoming_message_);
 2069              		.loc 7 281 21 view .LVU574
 2070 0404 88F80430 		strb	r3, [r8, #4]
 2071              	.LVL133:
 281:../libdaisy/src/hid/midi.h ****                     event_q_.Write(incoming_message_);
ARM GAS  /var/folders/g8/1wk0j7gx1n5fw296n3mf_1g40000gn/T//cczcQ1mS.s 			page 73


 2072              		.loc 7 281 21 view .LVU575
 2073 0408 FFF7FEFF 		bl	memcpy
 2074              	.LVL134:
 2075              	.LBB694:
 2076              	.LBI694:
  44:../libdaisy/src/util/ringbuffer.h ****     {
 2077              		.loc 15 44 17 is_stmt 1 view .LVU576
 2078              	.L71:
 2079              	.LBB695:
  46:../libdaisy/src/util/ringbuffer.h ****             ;
 2080              		.loc 15 46 15 view .LVU577
 2081              	.LBB696:
 2082              	.LBI696:
  30:../libdaisy/src/util/ringbuffer.h ****     {
 2083              		.loc 15 30 19 view .LVU578
 2084              	.LBB697:
  32:../libdaisy/src/util/ringbuffer.h ****     }
 2085              		.loc 15 32 17 is_stmt 0 view .LVU579
 2086 040c 2368     		ldr	r3, [r4]
  32:../libdaisy/src/util/ringbuffer.h ****     }
 2087              		.loc 15 32 29 view .LVU580
 2088 040e 2A68     		ldr	r2, [r5]
 2089              	.LVL135:
  32:../libdaisy/src/util/ringbuffer.h ****     }
 2090              		.loc 15 32 40 view .LVU581
 2091 0410 013B     		subs	r3, r3, #1
 2092 0412 9B1A     		subs	r3, r3, r2
 2093              	.LBE697:
 2094              	.LBE696:
  46:../libdaisy/src/util/ringbuffer.h ****             ;
 2095              		.loc 15 46 15 view .LVU582
 2096 0414 13F0FF0F 		tst	r3, #255
 2097 0418 F8D0     		beq	.L71
 2098              	.LVL136:
 2099              	.L108:
  46:../libdaisy/src/util/ringbuffer.h ****             ;
 2100              		.loc 15 46 15 view .LVU583
 2101 041a 9022     		movs	r2, #144
 2102 041c 46A9     		add	r1, sp, #280
 2103 041e 6AA8     		add	r0, sp, #424
 2104 0420 FFF7FEFF 		bl	memcpy
 2105              	.LVL137:
 2106              	.LBB698:
 2107              	.LBI698:
  54:../libdaisy/src/util/ringbuffer.h ****     {
 2108              		.loc 15 54 17 is_stmt 1 view .LVU584
 2109              	.LBB699:
  56:../libdaisy/src/util/ringbuffer.h ****         buffer_[w] = v;
 2110              		.loc 15 56 16 is_stmt 0 view .LVU585
 2111 0424 D5F80090 		ldr	r9, [r5]
 2112              	.LVL138:
  57:../libdaisy/src/util/ringbuffer.h ****         write_ptr_ = (w + 1) % size;
 2113              		.loc 15 57 9 view .LVU586
 2114 0428 9022     		movs	r2, #144
 2115 042a 6AA9     		add	r1, sp, #424
 2116 042c 09EBC900 		add	r0, r9, r9, lsl #3
 2117 0430 08EB0010 		add	r0, r8, r0, lsl #4
ARM GAS  /var/folders/g8/1wk0j7gx1n5fw296n3mf_1g40000gn/T//cczcQ1mS.s 			page 74


 2118 0434 9830     		adds	r0, r0, #152
 2119 0436 FFF7FEFF 		bl	memcpy
 2120              	.LVL139:
  58:../libdaisy/src/util/ringbuffer.h ****     }
 2121              		.loc 15 58 25 view .LVU587
 2122 043a 09F10103 		add	r3, r9, #1
  58:../libdaisy/src/util/ringbuffer.h ****     }
 2123              		.loc 15 58 30 view .LVU588
 2124 043e DBB2     		uxtb	r3, r3
  58:../libdaisy/src/util/ringbuffer.h ****     }
 2125              		.loc 15 58 9 view .LVU589
 2126 0440 2B60     		str	r3, [r5]
 2127              	.LVL140:
  58:../libdaisy/src/util/ringbuffer.h ****     }
 2128              		.loc 15 58 9 view .LVU590
 2129              	.LBE699:
 2130              	.LBE698:
 2131              	.LBE695:
 2132              	.LBE694:
 2133 0442 98E6     		b	.L48
 2134              	.LVL141:
 2135              	.L65:
 238:../libdaisy/src/hid/midi.h ****                     }
 2136              		.loc 7 238 25 view .LVU591
 2137 0444 0222     		movs	r2, #2
 2138 0446 88F80420 		strb	r2, [r8, #4]
 2139 044a AFE7     		b	.L67
 2140              	.LVL142:
 2141              	.L112:
 267:../libdaisy/src/hid/midi.h ****                     }
 2142              		.loc 7 267 25 view .LVU592
 2143 044c 1A4A     		ldr	r2, .L116+8
 2144 044e 88F80830 		strb	r3, [r8, #8]
 2145 0452 1370     		strb	r3, [r2]
 2146 0454 EEE6     		b	.L68
 2147              	.LVL143:
 2148              	.L61:
 205:../libdaisy/src/hid/midi.h ****                                 {
 2149              		.loc 7 205 38 view .LVU593
 2150 0456 4307     		lsls	r3, r0, #29
 2151 0458 7FF58DAE 		bpl	.L48
 2152 045c 9022     		movs	r2, #144
 2153 045e 1549     		ldr	r1, .L116+4
 2154 0460 46A8     		add	r0, sp, #280
 2155              	.LVL144:
 207:../libdaisy/src/hid/midi.h ****                                     event_q_.Write(incoming_message_);
 2156              		.loc 7 207 37 view .LVU594
 2157 0462 88F804C0 		strb	ip, [r8, #4]
 2158              	.LVL145:
 207:../libdaisy/src/hid/midi.h ****                                     event_q_.Write(incoming_message_);
 2159              		.loc 7 207 37 view .LVU595
 2160 0466 FFF7FEFF 		bl	memcpy
 2161              	.LVL146:
 2162              	.LBB700:
 2163              	.LBI700:
  44:../libdaisy/src/util/ringbuffer.h ****     {
 2164              		.loc 15 44 17 is_stmt 1 view .LVU596
ARM GAS  /var/folders/g8/1wk0j7gx1n5fw296n3mf_1g40000gn/T//cczcQ1mS.s 			page 75


 2165              	.L62:
 2166              	.LBB701:
  46:../libdaisy/src/util/ringbuffer.h ****             ;
 2167              		.loc 15 46 15 view .LVU597
 2168              	.LBB702:
 2169              	.LBI702:
  30:../libdaisy/src/util/ringbuffer.h ****     {
 2170              		.loc 15 30 19 view .LVU598
 2171              	.LBB703:
  32:../libdaisy/src/util/ringbuffer.h ****     }
 2172              		.loc 15 32 17 is_stmt 0 view .LVU599
 2173 046a 2368     		ldr	r3, [r4]
  32:../libdaisy/src/util/ringbuffer.h ****     }
 2174              		.loc 15 32 29 view .LVU600
 2175 046c 2A68     		ldr	r2, [r5]
 2176              	.LVL147:
  32:../libdaisy/src/util/ringbuffer.h ****     }
 2177              		.loc 15 32 40 view .LVU601
 2178 046e 013B     		subs	r3, r3, #1
 2179 0470 9B1A     		subs	r3, r3, r2
 2180              	.LBE703:
 2181              	.LBE702:
  46:../libdaisy/src/util/ringbuffer.h ****             ;
 2182              		.loc 15 46 15 view .LVU602
 2183 0472 13F0FF0F 		tst	r3, #255
 2184 0476 F8D0     		beq	.L62
 2185 0478 CFE7     		b	.L108
 2186              	.LVL148:
 2187              	.L113:
  46:../libdaisy/src/util/ringbuffer.h ****             ;
 2188              		.loc 15 46 15 view .LVU603
 2189              	.LBE701:
 2190              	.LBE700:
 2191              	.LBB704:
 2192              	.LBI704:
 156:../libdaisy/src/hid/midi.h ****     {
 2193              		.loc 7 156 10 is_stmt 1 view .LVU604
 2194              	.LBB705:
 186:../libdaisy/src/hid/midi.h **** 
 2195              		.loc 7 186 46 is_stmt 0 view .LVU605
 2196 047a 114B     		ldr	r3, .L116+16
 182:../libdaisy/src/hid/midi.h ****                                 running_status_        = SystemRealTime;
 2197              		.loc 7 182 33 view .LVU606
 2198 047c 4FF0080C 		mov	ip, #8
 189:../libdaisy/src/hid/midi.h ****                                 event_q_.Write(incoming_message_);
 2199              		.loc 7 189 33 view .LVU607
 2200 0480 88F80420 		strb	r2, [r8, #4]
 2201              	.LVL149:
 189:../libdaisy/src/hid/midi.h ****                                 event_q_.Write(incoming_message_);
 2202              		.loc 7 189 33 view .LVU608
 2203 0484 9022     		movs	r2, #144
 186:../libdaisy/src/hid/midi.h **** 
 2204              		.loc 7 186 46 view .LVU609
 2205 0486 1B78     		ldrb	r3, [r3]	@ zero_extendqisi2
 2206 0488 0A49     		ldr	r1, .L116+4
 2207 048a 0340     		ands	r3, r3, r0
 2208 048c 46A8     		add	r0, sp, #280
ARM GAS  /var/folders/g8/1wk0j7gx1n5fw296n3mf_1g40000gn/T//cczcQ1mS.s 			page 76


 2209              	.LVL150:
 182:../libdaisy/src/hid/midi.h ****                                 running_status_        = SystemRealTime;
 2210              		.loc 7 182 33 view .LVU610
 2211 048e 88F808C0 		strb	ip, [r8, #8]
 184:../libdaisy/src/hid/midi.h ****                                     = static_cast<SystemRealTimeType>(
 2212              		.loc 7 184 33 view .LVU611
 2213 0492 88F89430 		strb	r3, [r8, #148]
 183:../libdaisy/src/hid/midi.h ****                                 incoming_message_.srt_type
 2214              		.loc 7 183 33 view .LVU612
 2215 0496 084B     		ldr	r3, .L116+8
 2216 0498 83F800C0 		strb	ip, [r3]
 2217 049c FFF7FEFF 		bl	memcpy
 2218              	.LVL151:
 2219              	.LBB706:
 2220              	.LBI706:
  44:../libdaisy/src/util/ringbuffer.h ****     {
 2221              		.loc 15 44 17 is_stmt 1 view .LVU613
 2222              	.L60:
 2223              	.LBB707:
  46:../libdaisy/src/util/ringbuffer.h ****             ;
 2224              		.loc 15 46 15 view .LVU614
 2225              	.LBB708:
 2226              	.LBI708:
  30:../libdaisy/src/util/ringbuffer.h ****     {
 2227              		.loc 15 30 19 view .LVU615
 2228              	.LBB709:
  32:../libdaisy/src/util/ringbuffer.h ****     }
 2229              		.loc 15 32 17 is_stmt 0 view .LVU616
 2230 04a0 2368     		ldr	r3, [r4]
  32:../libdaisy/src/util/ringbuffer.h ****     }
 2231              		.loc 15 32 29 view .LVU617
 2232 04a2 2A68     		ldr	r2, [r5]
 2233              	.LVL152:
  32:../libdaisy/src/util/ringbuffer.h ****     }
 2234              		.loc 15 32 40 view .LVU618
 2235 04a4 013B     		subs	r3, r3, #1
 2236 04a6 9B1A     		subs	r3, r3, r2
 2237              	.LBE709:
 2238              	.LBE708:
  46:../libdaisy/src/util/ringbuffer.h ****             ;
 2239              		.loc 15 46 15 view .LVU619
 2240 04a8 13F0FF0F 		tst	r3, #255
 2241 04ac F8D0     		beq	.L60
 2242 04ae B4E7     		b	.L108
 2243              	.L117:
 2244              		.align	2
 2245              	.L116:
 2246 04b0 B6900000 		.word	midi+37046
 2247 04b4 08000000 		.word	midi+8
 2248 04b8 A4900000 		.word	midi+37028
 2249 04bc B0900000 		.word	midi+37040
 2250 04c0 BA900000 		.word	midi+37050
 2251              	.LBE707:
 2252              	.LBE706:
 2253              	.LBE705:
 2254              	.LBE704:
 2255              	.LBE712:
ARM GAS  /var/folders/g8/1wk0j7gx1n5fw296n3mf_1g40000gn/T//cczcQ1mS.s 			page 77


 2256              	.LBE727:
 2257              	.LBE728:
 2258              	.LBE746:
 2259              		.cfi_endproc
 2260              	.LFE4419:
 2262              		.section	.text.startup._GLOBAL__sub_I_midi,"ax",%progbits
 2263              		.align	1
 2264              		.p2align 2,,3
 2265              		.syntax unified
 2266              		.thumb
 2267              		.thumb_func
 2268              		.fpu fpv5-d16
 2270              	_GLOBAL__sub_I_midi:
 2271              	.LFB5004:
 230:pluck.cpp     ****         }
 231:pluck.cpp     ****     }
 232:pluck.cpp     **** }
 2272              		.loc 8 232 1 is_stmt 1 view -0
 2273              		.cfi_startproc
 2274              		@ args = 0, pretend = 0, frame = 0
 2275              		@ frame_needed = 0, uses_anonymous_args = 0
 2276              	.LBB795:
 2277              	.LBI795:
 2278              		.loc 8 232 1 view .LVU621
 2279              	.LVL153:
 2280              	.LBB796:
 2281              	.LBB797:
 2282              	.LBI797:
  21:../libdaisy/src/daisy_seed.h ****     ~DaisySeed() {}
 2283              		.loc 2 21 5 view .LVU622
 2284              	.LBB798:
 2285              	.LBB799:
 2286              	.LBI799:
 2287              		.file 16 "../libdaisy/src/per/qspi.h"
   1:../libdaisy/src/per/qspi.h **** #ifndef DSY_QSPI
   2:../libdaisy/src/per/qspi.h **** #define DSY_QSPI /**< Macro */
   3:../libdaisy/src/per/qspi.h **** 
   4:../libdaisy/src/per/qspi.h **** #ifndef UNIT_TEST // for unit tests, a dummy implementation
   5:../libdaisy/src/per/qspi.h **** 
   6:../libdaisy/src/per/qspi.h **** #include <cstdint>
   7:../libdaisy/src/per/qspi.h **** #include "daisy_core.h" // Added for dsy_gpio_pin typedef
   8:../libdaisy/src/per/qspi.h **** 
   9:../libdaisy/src/per/qspi.h **** #define DSY_QSPI_TEXT       \
  10:../libdaisy/src/per/qspi.h ****     __attribute__((section( \
  11:../libdaisy/src/per/qspi.h ****         ".qspiflash_text"))) /**< used for reading memory in memory_mapped mode. */
  12:../libdaisy/src/per/qspi.h **** #define DSY_QSPI_DATA       \
  13:../libdaisy/src/per/qspi.h ****     __attribute__((section( \
  14:../libdaisy/src/per/qspi.h ****         ".qspiflash_data"))) /**< used for reading memory in memory_mapped mode. */
  15:../libdaisy/src/per/qspi.h **** #define DSY_QSPI_BSS        \
  16:../libdaisy/src/per/qspi.h ****     __attribute__((section( \
  17:../libdaisy/src/per/qspi.h ****         ".qspiflash_bss"))) /**< used for reading memory in memory_mapped mode. */
  18:../libdaisy/src/per/qspi.h **** 
  19:../libdaisy/src/per/qspi.h **** namespace daisy
  20:../libdaisy/src/per/qspi.h **** {
  21:../libdaisy/src/per/qspi.h **** /** @addtogroup serial
  22:../libdaisy/src/per/qspi.h **** @{
  23:../libdaisy/src/per/qspi.h **** */
ARM GAS  /var/folders/g8/1wk0j7gx1n5fw296n3mf_1g40000gn/T//cczcQ1mS.s 			page 78


  24:../libdaisy/src/per/qspi.h **** 
  25:../libdaisy/src/per/qspi.h **** /** 
  26:../libdaisy/src/per/qspi.h ****  Driver for QSPI peripheral to interface with external flash memory. \n 
  27:../libdaisy/src/per/qspi.h ****     Currently supported QSPI Devices: \n 
  28:../libdaisy/src/per/qspi.h ****     * IS25LP080D
  29:../libdaisy/src/per/qspi.h **** */
  30:../libdaisy/src/per/qspi.h **** class QSPIHandle
  31:../libdaisy/src/per/qspi.h **** {
  32:../libdaisy/src/per/qspi.h ****   public:
  33:../libdaisy/src/per/qspi.h ****     enum Result
  34:../libdaisy/src/per/qspi.h ****     {
  35:../libdaisy/src/per/qspi.h ****         OK = 0,
  36:../libdaisy/src/per/qspi.h ****         ERR
  37:../libdaisy/src/per/qspi.h ****     };
  38:../libdaisy/src/per/qspi.h **** 
  39:../libdaisy/src/per/qspi.h ****     /** Indicates the current status of the module. 
  40:../libdaisy/src/per/qspi.h ****          *  Warnings are indicated by a leading W.
  41:../libdaisy/src/per/qspi.h ****          *  Errors are indicated by a leading E and cause an immediate exit.
  42:../libdaisy/src/per/qspi.h ****          * 
  43:../libdaisy/src/per/qspi.h ****          *  \param GOOD - No errors have been reported.
  44:../libdaisy/src/per/qspi.h ****          *  \param E_HAL_ERROR - HAL code did not return HAL_OK.
  45:../libdaisy/src/per/qspi.h ****          *  \param E_SWITCHING_MODES - An error was encountered while switching QSPI peripheral mod
  46:../libdaisy/src/per/qspi.h ****          *  \param E_INVALID_MODE - QSPI should not be written to while the program is executing fr
  47:../libdaisy/src/per/qspi.h ****          */
  48:../libdaisy/src/per/qspi.h ****     enum Status
  49:../libdaisy/src/per/qspi.h ****     {
  50:../libdaisy/src/per/qspi.h ****         GOOD = 0,
  51:../libdaisy/src/per/qspi.h ****         E_HAL_ERROR,
  52:../libdaisy/src/per/qspi.h ****         E_SWITCHING_MODES,
  53:../libdaisy/src/per/qspi.h ****         E_INVALID_MODE,
  54:../libdaisy/src/per/qspi.h ****     };
  55:../libdaisy/src/per/qspi.h **** 
  56:../libdaisy/src/per/qspi.h ****     /** Configuration structure for interfacing with QSPI Driver */
  57:../libdaisy/src/per/qspi.h ****     struct Config
  58:../libdaisy/src/per/qspi.h ****     {
  59:../libdaisy/src/per/qspi.h ****         /** Flash Devices supported. (Both of these are more-or-less the same, just different sizes
  60:../libdaisy/src/per/qspi.h ****         enum Device
  61:../libdaisy/src/per/qspi.h ****         {
  62:../libdaisy/src/per/qspi.h ****             IS25LP080D,  /**< & */
  63:../libdaisy/src/per/qspi.h ****             IS25LP064A,  /**< & */
  64:../libdaisy/src/per/qspi.h ****             DEVICE_LAST, /**< & */
  65:../libdaisy/src/per/qspi.h ****         };
  66:../libdaisy/src/per/qspi.h **** 
  67:../libdaisy/src/per/qspi.h ****         /** 
  68:../libdaisy/src/per/qspi.h ****         Modes of operation.
  69:../libdaisy/src/per/qspi.h ****         Memory Mapped mode: QSPI configured so that the QSPI can be
  70:../libdaisy/src/per/qspi.h ****         read from starting address 0x90000000. Writing is not
  71:../libdaisy/src/per/qspi.h ****         possible in this mode. \n 
  72:../libdaisy/src/per/qspi.h ****         Indirect Polling mode: Device driver enabled. 
  73:../libdaisy/src/per/qspi.h ****         */
  74:../libdaisy/src/per/qspi.h ****         enum Mode
  75:../libdaisy/src/per/qspi.h ****         {
  76:../libdaisy/src/per/qspi.h ****             MEMORY_MAPPED,    /**< & */
  77:../libdaisy/src/per/qspi.h ****             INDIRECT_POLLING, /**< & */
  78:../libdaisy/src/per/qspi.h ****             MODE_LAST,
  79:../libdaisy/src/per/qspi.h ****         };
  80:../libdaisy/src/per/qspi.h **** 
ARM GAS  /var/folders/g8/1wk0j7gx1n5fw296n3mf_1g40000gn/T//cczcQ1mS.s 			page 79


  81:../libdaisy/src/per/qspi.h ****         //SCK,  CE# (active low)
  82:../libdaisy/src/per/qspi.h ****         struct
  83:../libdaisy/src/per/qspi.h ****         {
  84:../libdaisy/src/per/qspi.h ****             dsy_gpio_pin io0; /**< & */
  85:../libdaisy/src/per/qspi.h ****             dsy_gpio_pin io1; /**< & */
  86:../libdaisy/src/per/qspi.h ****             dsy_gpio_pin io2; /**< & */
  87:../libdaisy/src/per/qspi.h ****             dsy_gpio_pin io3; /**< & */
  88:../libdaisy/src/per/qspi.h ****             dsy_gpio_pin clk; /**< & */
  89:../libdaisy/src/per/qspi.h ****             dsy_gpio_pin ncs; /**< & */
  90:../libdaisy/src/per/qspi.h ****         } pin_config;
  91:../libdaisy/src/per/qspi.h **** 
  92:../libdaisy/src/per/qspi.h ****         Device device;
  93:../libdaisy/src/per/qspi.h ****         Mode   mode;
  94:../libdaisy/src/per/qspi.h ****     };
  95:../libdaisy/src/per/qspi.h **** 
  96:../libdaisy/src/per/qspi.h ****     /** 
  97:../libdaisy/src/per/qspi.h ****         Initializes QSPI peripheral, and Resets, and prepares memory for access.
  98:../libdaisy/src/per/qspi.h ****         \param config should be populated with the mode, device and pin_config before calling this 
  99:../libdaisy/src/per/qspi.h ****         \return Result::OK or Result::ERR
 100:../libdaisy/src/per/qspi.h ****         */
 101:../libdaisy/src/per/qspi.h ****     Result Init(const Config& config);
 102:../libdaisy/src/per/qspi.h **** 
 103:../libdaisy/src/per/qspi.h ****     /** Returns the current config. */
 104:../libdaisy/src/per/qspi.h ****     const Config& GetConfig() const;
 105:../libdaisy/src/per/qspi.h **** 
 106:../libdaisy/src/per/qspi.h ****     // Couldn't this just be called before anything else in init? That
 107:../libdaisy/src/per/qspi.h ****     // would make manually calling it unnecessary.
 108:../libdaisy/src/per/qspi.h ****     /** 
 109:../libdaisy/src/per/qspi.h ****         Deinitializes the peripheral
 110:../libdaisy/src/per/qspi.h ****         This should be called before reinitializing QSPI in a different mode.
 111:../libdaisy/src/per/qspi.h ****         \return Result::OK or Result::ERR
 112:../libdaisy/src/per/qspi.h ****         */
 113:../libdaisy/src/per/qspi.h ****     Result DeInit();
 114:../libdaisy/src/per/qspi.h **** 
 115:../libdaisy/src/per/qspi.h ****     /** 
 116:../libdaisy/src/per/qspi.h ****         Writes a single page to to the specified address on the QSPI chip.
 117:../libdaisy/src/per/qspi.h ****         For IS25LP*, page size is 256 bytes.
 118:../libdaisy/src/per/qspi.h ****         \param address Address to write to
 119:../libdaisy/src/per/qspi.h ****         \param size Buffer size
 120:../libdaisy/src/per/qspi.h ****         \param buffer Buffer to write
 121:../libdaisy/src/per/qspi.h ****         \return Result::OK or Result::ERR
 122:../libdaisy/src/per/qspi.h ****         */
 123:../libdaisy/src/per/qspi.h ****     Result WritePage(uint32_t address, uint32_t size, uint8_t* buffer);
 124:../libdaisy/src/per/qspi.h **** 
 125:../libdaisy/src/per/qspi.h ****     /** 
 126:../libdaisy/src/per/qspi.h ****         Writes data in buffer to to the QSPI. Starting at address to address+size 
 127:../libdaisy/src/per/qspi.h ****         \param address Address to write to
 128:../libdaisy/src/per/qspi.h ****         \param size Buffer size
 129:../libdaisy/src/per/qspi.h ****         \param buffer Buffer to write
 130:../libdaisy/src/per/qspi.h ****         \return Result::OK or Result::ERR
 131:../libdaisy/src/per/qspi.h ****         */
 132:../libdaisy/src/per/qspi.h ****     Result Write(uint32_t address, uint32_t size, uint8_t* buffer);
 133:../libdaisy/src/per/qspi.h **** 
 134:../libdaisy/src/per/qspi.h ****     /** 
 135:../libdaisy/src/per/qspi.h ****         Erases the area specified on the chip.
 136:../libdaisy/src/per/qspi.h ****         Erasures will happen by 4K, 32K or 64K increments.
 137:../libdaisy/src/per/qspi.h ****         Smallest erase possible is 4kB at a time. (on IS25LP*)
ARM GAS  /var/folders/g8/1wk0j7gx1n5fw296n3mf_1g40000gn/T//cczcQ1mS.s 			page 80


 138:../libdaisy/src/per/qspi.h ****         \param start_addr Address to begin erasing from
 139:../libdaisy/src/per/qspi.h ****         \param end_addr  Address to stop erasing at
 140:../libdaisy/src/per/qspi.h ****         \return Result::OK or Result::ERR
 141:../libdaisy/src/per/qspi.h ****         */
 142:../libdaisy/src/per/qspi.h ****     Result Erase(uint32_t start_addr, uint32_t end_addr);
 143:../libdaisy/src/per/qspi.h **** 
 144:../libdaisy/src/per/qspi.h ****     /**  
 145:../libdaisy/src/per/qspi.h ****          Erases a single sector of the chip.  
 146:../libdaisy/src/per/qspi.h ****         TODO: Document the size of this function. 
 147:../libdaisy/src/per/qspi.h ****         \param address Address of sector to erase
 148:../libdaisy/src/per/qspi.h ****         \return Result::OK or Result::ERR
 149:../libdaisy/src/per/qspi.h ****         */
 150:../libdaisy/src/per/qspi.h ****     Result EraseSector(uint32_t address);
 151:../libdaisy/src/per/qspi.h **** 
 152:../libdaisy/src/per/qspi.h ****     /** Returns the current class status. Useful for debugging.
 153:../libdaisy/src/per/qspi.h ****      *  \returns Status
 154:../libdaisy/src/per/qspi.h ****      */
 155:../libdaisy/src/per/qspi.h ****     Status GetStatus();
 156:../libdaisy/src/per/qspi.h **** 
 157:../libdaisy/src/per/qspi.h ****     /** Returns a pointer to the actual memory used 
 158:../libdaisy/src/per/qspi.h ****      *  The memory at this address is read-only
 159:../libdaisy/src/per/qspi.h ****      *  to write to it use the Write function.
 160:../libdaisy/src/per/qspi.h ****      * 
 161:../libdaisy/src/per/qspi.h ****      *  \param offset returns the pointer starting this 
 162:../libdaisy/src/per/qspi.h ****      *                many bytes into the memory
 163:../libdaisy/src/per/qspi.h ****     */
 164:../libdaisy/src/per/qspi.h ****     void* GetData(uint32_t offset = 0);
 165:../libdaisy/src/per/qspi.h **** 
 166:../libdaisy/src/per/qspi.h ****     QSPIHandle() : pimpl_(nullptr) {}
 2288              		.loc 16 166 5 view .LVU623
 2289              	.LBE799:
 2290              	.LBE798:
 2291              	.LBE797:
 2292              	.LBE796:
 2293              	.LBE795:
 2294              		.loc 8 232 1 is_stmt 0 view .LVU624
 2295 0000 F8B5     		push	{r3, r4, r5, r6, r7, lr}
 2296              		.cfi_def_cfa_offset 24
 2297              		.cfi_offset 3, -24
 2298              		.cfi_offset 4, -20
 2299              		.cfi_offset 5, -16
 2300              		.cfi_offset 6, -12
 2301              		.cfi_offset 7, -8
 2302              		.cfi_offset 14, -4
 2303              	.LBB888:
 2304              	.LBB886:
 2305              	.LBB817:
 2306              	.LBB815:
 2307              	.LBB804:
 2308              	.LBB800:
 2309              	.LBB801:
 2310              		.loc 16 166 34 view .LVU625
 2311 0002 2C48     		ldr	r0, .L122
 2312 0004 0024     		movs	r4, #0
 2313              	.LBE801:
 2314              	.LBE800:
 2315              	.LBE804:
ARM GAS  /var/folders/g8/1wk0j7gx1n5fw296n3mf_1g40000gn/T//cczcQ1mS.s 			page 81


 2316              	.LBE815:
 2317              	.LBE817:
 151:pluck.cpp     **** static ReverbSc verb;
 2318              		.loc 8 151 18 view .LVU626
 2319 0006 2C4A     		ldr	r2, .L122+4
 2320              	.LBB818:
 2321              	.LBB819:
 2322              	.LBB820:
 2323              	.LBB821:
 2324              	.LBB822:
 2325              	.LBB823:
 2326              	.LBB824:
  37:../libdaisy/src/hid/midi.h ****             tx     = {DSY_GPIOB, 6};
 2327              		.loc 7 37 20 view .LVU627
 2328 0008 49F2AC05 		movw	r5, #37036
 2329              	.LBE824:
 2330              	.LBE823:
 2331              	.LBE822:
 2332              	.LBE821:
 2333              	.LBE820:
 2334              	.LBE819:
 2335              	.LBE818:
 151:pluck.cpp     **** static ReverbSc verb;
 2336              		.loc 8 151 18 view .LVU628
 2337 000c 2B49     		ldr	r1, .L122+8
 2338              	.LBB873:
 2339              	.LBB870:
 2340              	.LBB867:
 2341              	.LBB843:
 2342              	.LBB837:
 2343              	.LBB831:
 2344              	.LBB825:
  36:../libdaisy/src/hid/midi.h ****             rx     = {DSY_GPIOB, 7};
 2345              		.loc 7 36 20 view .LVU629
 2346 000e 49F2A807 		movw	r7, #37032
 2347              	.LBE825:
 2348              	.LBE831:
 2349              	.LBE837:
 2350              	.LBE843:
 2351              	.LBE867:
 2352              	.LBE870:
 2353              	.LBE873:
 2354              	.LBB874:
 2355              	.LBB816:
 2356              	.LBB805:
 2357              	.LBB803:
 2358              	.LBB802:
 2359              		.loc 16 166 34 view .LVU630
 2360 0012 0460     		str	r4, [r0]
 2361              	.LVL154:
 2362              		.loc 16 166 34 view .LVU631
 2363              	.LBE802:
 2364              	.LBE803:
 2365              	.LBE805:
 2366              	.LBB806:
 2367              	.LBI806:
  76:../libdaisy/src/hid/audio.h ****     ~AudioHandle() {}
ARM GAS  /var/folders/g8/1wk0j7gx1n5fw296n3mf_1g40000gn/T//cczcQ1mS.s 			page 82


 2368              		.loc 6 76 5 is_stmt 1 view .LVU632
 2369              	.LBB807:
 2370              	.LBB808:
  76:../libdaisy/src/hid/audio.h ****     ~AudioHandle() {}
 2371              		.loc 6 76 35 is_stmt 0 view .LVU633
 2372 0014 4461     		str	r4, [r0, #20]
 2373              	.LVL155:
  76:../libdaisy/src/hid/audio.h ****     ~AudioHandle() {}
 2374              		.loc 6 76 35 view .LVU634
 2375              	.LBE808:
 2376              	.LBE807:
 2377              	.LBE806:
 2378              	.LBB809:
 2379              	.LBI809:
  92:../libdaisy/src/per/adc.h ****     ~AdcHandle() {}
 2380              		.loc 5 92 5 is_stmt 1 view .LVU635
  92:../libdaisy/src/per/adc.h ****     ~AdcHandle() {}
 2381              		.loc 5 92 5 is_stmt 0 view .LVU636
 2382              	.LBE809:
 2383              	.LBB810:
 2384              	.LBI810:
 2385              		.file 17 "../libdaisy/src/per/dac.h"
   1:../libdaisy/src/per/dac.h **** #pragma once
   2:../libdaisy/src/per/dac.h **** #ifndef DSY_DAC_H
   3:../libdaisy/src/per/dac.h **** #define DSY_DAC_H
   4:../libdaisy/src/per/dac.h **** 
   5:../libdaisy/src/per/dac.h **** #include "daisy_core.h"
   6:../libdaisy/src/per/dac.h **** 
   7:../libdaisy/src/per/dac.h **** namespace daisy
   8:../libdaisy/src/per/dac.h **** {
   9:../libdaisy/src/per/dac.h **** /** @brief DAC handle for Built-in DAC Peripheral 
  10:../libdaisy/src/per/dac.h ****  *  @ingroup per_analog
  11:../libdaisy/src/per/dac.h ****  ** 
  12:../libdaisy/src/per/dac.h ****  ** For now only Normal Mode is supported,
  13:../libdaisy/src/per/dac.h ****  ** Sample and hold mode provides reduced power consumption, but requires a bit more setup.
  14:../libdaisy/src/per/dac.h ****  **
  15:../libdaisy/src/per/dac.h ****  ** For now connecting the DAC through other internal peripherals is also not supported.
  16:../libdaisy/src/per/dac.h ****  **
  17:../libdaisy/src/per/dac.h ****  ** Since the DAC channels have dedicated pins we don't need to pass in a pin config like with
  18:../libdaisy/src/per/dac.h ****  ** other modules. However, it is still important to not try to use the DAC pins for anything else.
  19:../libdaisy/src/per/dac.h ****  ** DAC Channel 1 is on PA4, and DAC Channel 2 is on PA5
  20:../libdaisy/src/per/dac.h ****  ***/
  21:../libdaisy/src/per/dac.h **** class DacHandle
  22:../libdaisy/src/per/dac.h **** {
  23:../libdaisy/src/per/dac.h ****   public:
  24:../libdaisy/src/per/dac.h ****     /** Return Values for the DacHandle class */
  25:../libdaisy/src/per/dac.h ****     enum class Result
  26:../libdaisy/src/per/dac.h ****     {
  27:../libdaisy/src/per/dac.h ****         OK,
  28:../libdaisy/src/per/dac.h ****         ERR,
  29:../libdaisy/src/per/dac.h ****     };
  30:../libdaisy/src/per/dac.h **** 
  31:../libdaisy/src/per/dac.h ****     /** Selects which channel(s) will be configured for use. */
  32:../libdaisy/src/per/dac.h ****     enum class Channel
  33:../libdaisy/src/per/dac.h ****     {
  34:../libdaisy/src/per/dac.h ****         ONE,
  35:../libdaisy/src/per/dac.h ****         TWO,
ARM GAS  /var/folders/g8/1wk0j7gx1n5fw296n3mf_1g40000gn/T//cczcQ1mS.s 			page 83


  36:../libdaisy/src/per/dac.h ****         BOTH,
  37:../libdaisy/src/per/dac.h ****     };
  38:../libdaisy/src/per/dac.h **** 
  39:../libdaisy/src/per/dac.h ****     /** Sets the Mode for the DAC channels.
  40:../libdaisy/src/per/dac.h ****      **
  41:../libdaisy/src/per/dac.h ****      ** Polling mode uses the blocking mode to transmit a single value at a time.
  42:../libdaisy/src/per/dac.h ****      **
  43:../libdaisy/src/per/dac.h ****      ** DMA mode uses a buffer, and periodically transmits it triggering a 
  44:../libdaisy/src/per/dac.h ****      ** callback to fill the buffer when it is ready for more samples.
  45:../libdaisy/src/per/dac.h ****      ***/
  46:../libdaisy/src/per/dac.h ****     enum class Mode
  47:../libdaisy/src/per/dac.h ****     {
  48:../libdaisy/src/per/dac.h ****         POLLING,
  49:../libdaisy/src/per/dac.h ****         DMA,
  50:../libdaisy/src/per/dac.h ****     };
  51:../libdaisy/src/per/dac.h **** 
  52:../libdaisy/src/per/dac.h ****     /** Sets the number of bits per sample transmitted out of the DAC.
  53:../libdaisy/src/per/dac.h ****      ** The output range will be: 0V - VDDA
  54:../libdaisy/src/per/dac.h ****      ** The resolution will be roughly: bitdepth / (VDDA - 0V) 
  55:../libdaisy/src/per/dac.h ****      ***/
  56:../libdaisy/src/per/dac.h ****     enum class BitDepth
  57:../libdaisy/src/per/dac.h ****     {
  58:../libdaisy/src/per/dac.h ****         BITS_8,
  59:../libdaisy/src/per/dac.h ****         BITS_12
  60:../libdaisy/src/per/dac.h ****     };
  61:../libdaisy/src/per/dac.h **** 
  62:../libdaisy/src/per/dac.h ****     /** Sets whether the DAC output is buffered for higher drive ability. */
  63:../libdaisy/src/per/dac.h ****     enum class BufferState
  64:../libdaisy/src/per/dac.h ****     {
  65:../libdaisy/src/per/dac.h ****         ENABLED,
  66:../libdaisy/src/per/dac.h ****         DISABLED,
  67:../libdaisy/src/per/dac.h ****     };
  68:../libdaisy/src/per/dac.h **** 
  69:../libdaisy/src/per/dac.h ****     /** Configuration structure for initializing the DAC structure. */
  70:../libdaisy/src/per/dac.h ****     struct Config
  71:../libdaisy/src/per/dac.h ****     {
  72:../libdaisy/src/per/dac.h ****         /** Target Samplerate in Hz used to configure the internal 
  73:../libdaisy/src/per/dac.h ****          ** timebase for DMA mode. Does nothing in POLLING mode.
  74:../libdaisy/src/per/dac.h ****          ** If the value is 0 at Init time this will default to 48000Hz 
  75:../libdaisy/src/per/dac.h ****          ** otherwise the driver will attempt meet the target.*/
  76:../libdaisy/src/per/dac.h ****         uint32_t target_samplerate;
  77:../libdaisy/src/per/dac.h **** 
  78:../libdaisy/src/per/dac.h ****         Channel     chn;
  79:../libdaisy/src/per/dac.h ****         Mode        mode;
  80:../libdaisy/src/per/dac.h ****         BitDepth    bitdepth;
  81:../libdaisy/src/per/dac.h ****         BufferState buff_state;
  82:../libdaisy/src/per/dac.h ****     };
  83:../libdaisy/src/per/dac.h **** 
  84:../libdaisy/src/per/dac.h ****     DacHandle() : pimpl_(nullptr) {}
 2386              		.loc 17 84 5 is_stmt 1 view .LVU637
 2387              	.LBB811:
 2388              	.LBB812:
 2389              		.loc 17 84 33 is_stmt 0 view .LVU638
 2390 0016 0462     		str	r4, [r0, #32]
 2391              	.LVL156:
 2392              		.loc 17 84 33 view .LVU639
 2393              	.LBE812:
ARM GAS  /var/folders/g8/1wk0j7gx1n5fw296n3mf_1g40000gn/T//cczcQ1mS.s 			page 84


 2394              	.LBE811:
 2395              	.LBE810:
 2396              	.LBB813:
 2397              	.LBI813:
